(dp0
S'24'
p1
(dp2
S'thigh'
p3
(dp4
I3
I1
ssS'gastritis'
p5
(dp6
I0
I1
ssS'acyclovir'
p7
(dp8
I3
I1
ssS'urine'
p9
(dp10
I0
I1
ssS'pulses'
p11
(dp12
I8
I1
ssS'motorcycle'
p13
(dp14
I7
I1
ssS'ulcer'
p15
(dp16
I0
I1
ssS'hock'
p17
(dp18
I8
I1
ssS'death'
p19
(dp20
I8
I1
ssS'blood stain'
p21
(dp22
I2
I1
ssS'rupture'
p23
(dp24
I8
I1
sI9
I1
ssS'edema'
p25
(dp26
I3
I1
ssS'tin'
p27
(dp28
I8
I2
ssS'rash'
p29
(dp30
I7
I1
ssS'woman'
p31
(dp32
I3
I1
sI4
I1
ssS'emergency'
p33
(dp34
I8
I1
sI9
I1
sI2
I1
ssS'electrolytes'
p35
(dp36
I1
I1
ssS'tens'
p37
(dp38
I1
I1
sI3
I1
sI4
I1
ssS'rib fractures'
p39
(dp40
I7
I1
ssS'therapy'
p41
(dp42
I1
I1
ssS'amp'
p43
(dp44
I0
I1
ssS'palpation'
p45
(dp46
I6
I1
ssS'care patient'
p47
(dp48
I5
I1
ssS'eva'
p49
(dp50
I7
I1
ssS'shock'
p51
(dp52
I8
I1
ssS'eyebrow'
p53
(dp54
I5
I1
ssS'dic'
p55
(dp56
I0
I1
sI8
I2
sI5
I1
sI6
I1
sI1
I1
ssS'cramp'
p57
(dp58
I0
I1
ssS'art'
p59
(dp60
I1
I1
sI2
I1
sI9
I1
ssS'bleeding'
p61
(dp62
I7
I1
ssS'abdominal pain'
p63
(dp64
I1
I1
sI2
I1
sI9
I1
ssS'pulse'
p65
(dp66
I8
I1
ssS'arc'
p67
(dp68
I4
I1
ssS'aids'
p69
(dp70
I3
I1
ssS'surgery'
p71
(dp72
I9
I1
ssS'arm'
p73
(dp74
I4
I1
ssS'head injury'
p75
(dp76
I9
I1
sI7
I1
ssS'patients'
p77
(dp78
I6
I1
ssS'ice'
p79
(dp80
I6
I1
ssS'cell'
p81
(dp82
I6
I1
ssS'students'
p83
(dp84
I0
I1
ssS'trauma'
p85
(dp86
I8
I2
sI9
I1
sI6
I2
ssS'medicine'
p87
(dp88
I8
I1
ssS'dyspnea'
p89
(dp90
I4
I1
ssS'causes of death'
p91
(dp92
I8
I1
ssS'burn'
p93
(dp94
I7
I1
ssS'patient'
p95
(dp96
I1
I1
sI3
I1
sI5
I3
sI6
I1
ssS'lymphocyte'
p97
(dp98
I3
I1
ssS'men'
p99
(dp100
I9
I1
sI2
I1
sI6
I1
sI7
I1
ssS'digital rectal examination'
p101
(dp102
I5
I1
ssS'let'
p103
(dp104
I0
I1
ssS'coma'
p105
(dp106
I0
I1
ssS'duodenal ulcer'
p107
(dp108
I0
I1
ssS'physiology'
p109
(dp110
I6
I1
ssS'pancreas'
p111
(dp112
I6
I1
ssS'accident'
p113
(dp114
I9
I1
sI4
I1
ssS'oman'
p115
(dp116
I3
I1
sI4
I1
ssS'splenic rupture'
p117
(dp118
I9
I1
ssS'ids'
p119
(dp120
I3
I1
ssS'medicare'
p121
(dp122
I5
I1
ssS'lymphocyte count'
p123
(dp124
I3
I1
ssS'ions'
p125
(dp126
I6
I1
ssS'rib fracture'
p127
(dp128
I7
I1
ssS'emergency department'
p129
(dp130
I9
I1
sI2
I1
ssS'surgical hemostasis'
p131
(dp132
I7
I1
ssS'medical student'
p133
(dp134
I0
I1
ssS'eye'
p135
(dp136
I5
I1
ssS'emergency medicine'
p137
(dp138
I8
I1
ssS'chi'
p139
(dp140
I2
I1
ssS'hospital'
p141
(dp142
I0
I1
sI1
I1
ssS'resuscitation'
p143
(dp144
I8
I2
ssS'headache'
p145
(dp146
I5
I1
ssS'head'
p147
(dp148
I9
I1
sI5
I2
sI7
I1
ssS'hemostasis'
p149
(dp150
I7
I1
ssS'medical students'
p151
(dp152
I0
I1
ssS'liver'
p153
(dp154
I8
I1
ssS'lymph'
p155
(dp156
I3
I1
ssS'ear'
p157
(dp158
I0
I1
sI1
I2
sI2
I1
sI3
I1
sI4
I2
sI5
I1
sI7
I1
sI8
I2
sI9
I2
ssS'physical examination'
p159
(dp160
I4
I1
ssS'physician'
p161
(dp162
I5
I1
ssS'hypotension'
p163
(dp164
I4
I1
ssS'spleen'
p165
(dp166
I8
I1
ssS'sti'
p167
(dp168
I3
I1
ssS'bed'
p169
(dp170
I8
I1
ssS'cat'
p171
(dp172
I8
I1
sI6
I1
ssS'hyperlipidemia'
p173
(dp174
I3
I1
ssS'utp'
p175
(dp176
I0
I1
ssS'un'
p177
(dp178
I1
I1
sI3
I1
sI5
I1
sI6
I3
sI9
I1
ssS'aid'
p179
(dp180
I3
I1
ssS'heart'
p181
(dp182
I1
I1
ssS'hemorrhage'
p183
(dp184
I6
I1
ssS'ant'
p185
(dp186
I2
I1
ssS'rat'
p187
(dp188
I8
I1
sI1
I1
sI2
I2
sI7
I1
ssS'hypertension'
p189
(dp190
I3
I1
ssS'heart rate'
p191
(dp192
I1
I1
ssS'acer'
p193
(dp194
I8
I1
ssS'rib'
p195
(dp196
I6
I1
sI7
I1
ssS'id'
p197
(dp198
I1
I1
sI2
I2
sI3
I2
sI4
I1
sI6
I1
sI9
I2
ssS'aging'
p199
(dp200
I6
I1
ssS'nad'
p201
(dp202
I7
I1
ssS'endoscopy'
p203
(dp204
I0
I1
ssS'who'
p205
(dp206
I9
I1
ssS'serum'
p207
(dp208
I1
I1
ssS'forehead'
p209
(dp210
I5
I1
ssS'chest'
p211
(dp212
I9
I1
sI2
I1
sI5
I1
ssS'lip'
p213
(dp214
I3
I1
ssS'iga'
p215
(dp216
I7
I1
ssS'sid'
p217
(dp218
I9
I1
sI2
I1
ssS'tibia'
p219
(dp220
I7
I1
ssS'tic'
p221
(dp222
I6
I1
ssS'lan'
p223
(dp224
I9
I1
ssS'fever'
p225
(dp226
I4
I1
ssS'pain'
p227
(dp228
I1
I1
sI2
I2
sI4
I2
sI9
I2
sI7
I1
ssS'thoracic wall'
p229
(dp230
I4
I1
ssS'comatose'
p231
(dp232
I0
I1
ssS'amination'
p233
(dp234
I4
I1
sI5
I1
ssS'blood'
p235
(dp236
I2
I1
ssS'student'
p237
(dp238
I0
I1
ssS'physic'
p239
(dp240
I3
I1
sI4
I1
sI5
I1
ssS'duodenum'
p241
(dp242
I6
I1
ssS'dom'
p243
(dp244
I0
I1
sI1
I2
sI2
I2
sI4
I1
sI5
I1
sI6
I4
sI7
I1
sI9
I1
ssS'abdominal injuries'
p245
(dp246
I6
I1
ssS'disease'
p247
(dp248
I0
I1
ssS'chest pain'
p249
(dp250
I9
I1
ssS'time'
p251
(dp252
I1
I1
ssS'wing'
p253
(dp254
I1
I1
sI9
I1
sI7
I1
sssS'25'
p255
(dp256
S'arachnoid'
p257
(dp258
I6
I1
ssS'consciousness'
p259
(dp260
I0
I1
sI5
I1
ssS'self assessment'
p261
(dp262
I3
I1
ssS'epinephrine'
p263
(dp264
I7
I1
ssS'rest'
p265
(dp266
I2
I1
sI6
I1
ssS'books'
p267
(dp268
I6
I1
ssg13
(dp269
I9
I1
ssS'stent'
p270
(dp271
I4
I1
ssS'histories'
p272
(dp273
I6
I1
ssS'imp'
p274
(dp275
I2
I1
ssS'parents'
p276
(dp277
I0
I1
sI4
I1
ssS'treatment'
p278
(dp279
I9
I1
sI5
I1
ssS'cations'
p280
(dp281
I9
I1
ssg31
(dp282
I0
I1
sI9
I1
sI3
I1
sI7
I1
ssg33
(dp283
I3
I1
sI6
I1
ssg37
(dp284
I0
I1
sI3
I1
sI5
I1
ssg249
(dp285
I3
I1
ssg43
(dp286
I8
I1
sI1
I2
ssS'falling'
p287
(dp288
I0
I1
ssS'nausea'
p289
(dp290
I8
I1
sI3
I1
ssS'haem'
p291
(dp292
I6
I1
ssS'spine'
p293
(dp294
I6
I1
ssS'university'
p295
(dp296
I1
I1
ssg55
(dp297
I1
I1
sI3
I1
sI6
I2
sI9
I1
ssS'obesity'
p298
(dp299
I0
I1
ssS'ears'
p300
(dp301
I2
I1
ssS'set'
p302
(dp303
I0
I1
ssg59
(dp304
I1
I1
sI6
I1
ssS'nut'
p305
(dp306
I0
I1
sI4
I1
sI5
I1
sI6
I1
sI8
I1
sI9
I1
ssS'neurology'
p307
(dp308
I1
I1
ssS'pediatrics'
p309
(dp310
I8
I1
ssg71
(dp311
I6
I1
ssg73
(dp312
I8
I1
sI1
I1
ssS'will'
p313
(dp314
I8
I2
ssS'mus'
p315
(dp316
I7
I1
ssS'pet'
p317
(dp318
I2
I1
ssS'review'
p319
(dp320
I3
I1
ssS'bipolar disorder'
p321
(dp322
I9
I1
ssg79
(dp323
I4
I1
ssS'health'
p324
(dp325
I2
I1
sI4
I1
ssS'internet'
p326
(dp327
I8
I1
ssg87
(dp328
I3
I1
sI6
I1
ssS'nurse'
p329
(dp330
I4
I1
ssS'prod'
p331
(dp332
I1
I1
ssS'eating'
p333
(dp334
I1
I1
ssS'parent'
p335
(dp336
I0
I1
sI4
I1
ssg99
(dp337
I9
I1
sI2
I1
sI3
I1
sI5
I1
sI6
I1
ssS'vomiting'
p338
(dp339
I3
I1
ssS'cough'
p340
(dp341
I0
I2
ssg113
(dp342
I9
I1
ssg67
(dp343
I0
I1
ssg115
(dp344
I0
I1
sI9
I1
sI3
I1
sI7
I1
ssS'survey'
p345
(dp346
I6
I1
ssg211
(dp347
I3
I1
ssS'bath'
p348
(dp349
I4
I1
ssg129
(dp350
I6
I1
ssg89
(dp351
I0
I1
ssS'urology'
p352
(dp353
I1
I1
ssS'adolescent'
p354
(dp355
I4
I1
ssg137
(dp356
I3
I1
ssg139
(dp357
I4
I1
ssg141
(dp358
I7
I1
ssS'maintenance'
p359
(dp360
I9
I1
sI4
I1
ssg251
(dp361
I9
I1
ssg147
(dp362
I9
I1
sI2
I1
sI5
I1
sI6
I1
ssS'bun'
p363
(dp364
I7
I1
ssS'child'
p365
(dp366
I4
I1
ssg157
(dp367
I0
I2
sI1
I1
sI2
I3
sI3
I3
sI4
I1
sI5
I2
sI6
I1
sI7
I2
sI8
I2
sI9
I2
ssg161
(dp368
I7
I1
ssS'anxiety'
p369
(dp370
I8
I1
ssg167
(dp371
I4
I1
ssg171
(dp372
I9
I1
sI6
I1
ssS'pediatric nurse practitioner'
p373
(dp374
I4
I1
ssg77
(dp375
I2
I1
ssg177
(dp376
I1
I1
sI7
I1
ssS'rickets'
p377
(dp378
I4
I1
ssS'history'
p379
(dp380
I2
I1
sI3
I1
ssg125
(dp381
I9
I1
sI4
I1
sI7
I1
ssg185
(dp382
I4
I1
ssS'neurosurgery'
p383
(dp384
I6
I1
ssg189
(dp385
I0
I1
sI3
I1
sI5
I1
ssS'tan'
p386
(dp387
I4
I1
ssS'education'
p388
(dp389
I6
I1
ssg197
(dp390
I8
I1
sI9
I2
sI6
I2
sI7
I1
ssg27
(dp391
I0
I1
sI1
I1
sI3
I1
ssS'book'
p392
(dp393
I6
I1
ssg95
(dp394
I2
I1
sI3
I1
ssg217
(dp395
I8
I1
sI7
I1
ssS'lithium'
p396
(dp397
I9
I1
ssg221
(dp398
I1
I1
sI4
I1
ssg223
(dp399
I8
I1
ssg225
(dp400
I0
I2
ssg227
(dp401
I8
I1
sI2
I1
sI3
I1
ssg205
(dp402
I6
I1
ssS'hand'
p403
(dp404
I1
I1
ssg233
(dp405
I2
I1
ssg235
(dp406
I4
I1
ssS'knee'
p407
(dp408
I2
I2
ssg239
(dp409
I2
I1
sI7
I1
ssS'neck'
p410
(dp411
I2
I1
ssS'shortness of breath'
p412
(dp413
I3
I1
ssg247
(dp414
I1
I1
sI4
I1
ssS'rome'
p415
(dp416
I8
I1
ssS'diagnosis'
p417
(dp418
I1
I1
ssS'nurse practitioner'
p419
(dp420
I4
I1
ssS'muscle'
p421
(dp422
I7
I1
ssg253
(dp423
I8
I1
sI9
I1
sI4
I1
sssS'26'
p424
(dp425
S'cdc'
p426
(dp427
I0
I1
sI1
I1
ssS'allergy'
p428
(dp429
I2
I1
ssg265
(dp430
I4
I1
ssS'north america'
p431
(dp432
I5
I1
ssS'children'
p433
(dp434
I0
I1
sI2
I1
ssS'hiv i'
p435
(dp436
I9
I1
ssS'actin'
p437
(dp438
I9
I1
ssg278
(dp439
I2
I1
sI4
I1
sI7
I1
ssg280
(dp440
I5
I1
ssS'safety'
p441
(dp442
I2
I1
ssS'chives'
p443
(dp444
I9
I1
ssS'urea'
p445
(dp446
I8
I1
sI9
I1
ssS'risk'
p447
(dp448
I1
I1
sI9
I1
ssS'hiv'
p449
(dp450
I9
I2
ssS'rna'
p451
(dp452
I9
I1
ssS'dc'
p453
(dp454
I0
I1
sI1
I1
ssS'vaccinations'
p455
(dp456
I8
I1
sI0
I1
sI2
I1
sI9
I1
sI1
I1
ssS'central america'
p457
(dp458
I3
I1
ssg55
(dp459
I0
I1
sI1
I2
sI3
I3
sI4
I1
sI5
I1
sI6
I2
sI7
I1
sI8
I1
sI9
I1
ssS'immunization'
p460
(dp461
I3
I1
sI4
I1
sI5
I1
sI7
I1
ssS'river'
p462
(dp463
I2
I2
ssS'immunizations'
p464
(dp465
I4
I1
sI5
I1
sI7
I1
ssS'tea'
p466
(dp467
I4
I1
ssg67
(dp468
I9
I1
ssg333
(dp469
I5
I1
ssS'sport'
p470
(dp471
I9
I1
sI7
I1
ssS'stds'
p472
(dp473
I9
I1
ssg315
(dp474
I3
I1
ssg79
(dp475
I3
I1
ssS'vaccines'
p476
(dp477
I8
I1
sI1
I1
ssg324
(dp478
I0
I1
sI1
I1
sI2
I1
sI5
I4
sI7
I1
sI9
I1
ssg87
(dp479
I0
I1
sI1
I2
sI3
I1
sI6
I2
sI7
I1
ssS'europe'
p480
(dp481
I5
I1
ssg95
(dp482
I3
I2
ssS'malaria'
p483
(dp484
I2
I3
sI3
I1
sI6
I2
sI7
I1
sI8
I1
sI9
I1
ssg99
(dp485
I0
I2
sI1
I2
sI2
I3
sI3
I1
sI4
I2
sI5
I1
sI7
I1
sI9
I1
ssS'prescription'
p486
(dp487
I0
I1
sI1
I1
sI5
I1
ssg115
(dp488
I4
I1
ssS'contract'
p489
(dp490
I9
I1
ssS'americas'
p491
(dp492
I2
I1
ssS'rainforest'
p493
(dp494
I4
I1
ssS'chive'
p495
(dp496
I9
I1
ssS'altitude'
p497
(dp498
I7
I1
ssS'resources health'
p499
(dp500
I7
I1
ssS'men i'
p501
(dp502
I5
I1
ssS'africa'
p503
(dp504
I2
I1
sI4
I1
ssg59
(dp505
I8
I1
ssS'yellow fever'
p506
(dp507
I2
I1
ssS'vaccination'
p508
(dp509
I8
I1
sI0
I1
sI2
I1
sI9
I1
sI1
I1
ssg139
(dp510
I0
I1
sI9
I1
sI2
I1
ssS't group'
p511
(dp512
I4
I1
ssS'diseases'
p513
(dp514
I1
I1
ssS'archives'
p515
(dp516
I9
I1
ssS'peru'
p517
(dp518
I1
I1
sI7
I2
ssS'ecuador'
p519
(dp520
I0
I2
sI5
I3
ssS'chloroquine'
p521
(dp522
I3
I1
ssS'drugs'
p523
(dp524
I7
I2
ssg365
(dp525
I0
I1
sI2
I1
ssg157
(dp526
I4
I1
ssS'women'
p527
(dp528
I0
I1
sI1
I1
sI2
I1
sI4
I1
sI5
I1
ssS't all'
p529
(dp530
I3
I1
ssS'det'
p531
(dp532
I3
I1
ssg167
(dp533
I2
I1
sI3
I1
ssg171
(dp534
I3
I1
sI5
I1
ssg77
(dp535
I3
I2
ssg177
(dp536
I9
I1
sI3
I1
sI4
I1
sI5
I1
sI7
I1
ssg379
(dp537
I2
I1
ssg125
(dp538
I0
I1
sI1
I1
sI2
I1
sI3
I1
sI4
I1
sI5
I5
sI7
I1
sI8
I1
sI9
I1
ssS'mexico'
p539
(dp540
I3
I1
ssS'chemoprophylaxis'
p541
(dp542
I3
I1
ssg185
(dp543
I0
I1
sI1
I1
sI2
I1
sI4
I1
sI5
I1
sI8
I1
ssg31
(dp544
I4
I1
ssS'archive'
p545
(dp546
I9
I1
ssS'pregnant women'
p547
(dp548
I0
I1
sI1
I1
sI2
I1
sI4
I1
sI5
I1
ssS'travel medicine'
p549
(dp550
I3
I1
sI6
I2
sI7
I1
ssS'travel'
p551
(dp552
I0
I3
sI1
I5
sI2
I2
sI3
I2
sI4
I1
sI5
I3
sI6
I2
sI7
I4
sI8
I3
sI9
I2
ssS'diarrhea'
p553
(dp554
I5
I1
ssg197
(dp555
I9
I2
sI7
I2
ssg27
(dp556
I0
I1
sI1
I1
sI3
I1
sI4
I1
sI5
I2
sI8
I1
sI9
I2
ssS'forest'
p557
(dp558
I4
I1
ssS'animal'
p559
(dp560
I7
I1
ssS'axis'
p561
(dp562
I8
I1
sI9
I1
sI2
I1
sI3
I2
sI7
I1
ssg223
(dp563
I8
I1
sI3
I1
ssg225
(dp564
I2
I1
ssS'hives'
p565
(dp566
I9
I1
ssS'rain'
p567
(dp568
I4
I1
ssg237
(dp569
I8
I1
ssS'america'
p570
(dp571
I2
I1
sI3
I1
sI4
I1
sI5
I1
ssg247
(dp572
I1
I1
ssS'pica'
p573
(dp574
I8
I1
sI9
I1
ssS'person'
p575
(dp576
I8
I1
sssS'27'
p577
(dp578
S'auscultation'
p579
(dp580
I6
I1
ssS'hypercholesterolemia'
p581
(dp582
I4
I1
ssS'colonoscopy'
p583
(dp584
I0
I1
sI1
I1
sI2
I1
sI3
I1
sI4
I2
sI9
I1
ssg433
(dp585
I1
I1
ssS'fiv'
p586
(dp587
I1
I1
ssg270
(dp588
I6
I1
ssS'father'
p589
(dp590
I5
I1
ssg211
(dp591
I8
I2
sI6
I1
sI7
I1
ssg278
(dp592
I9
I1
ssS'siblings'
p593
(dp594
I4
I1
ssS'tics'
p595
(dp596
I0
I1
ssg447
(dp597
I1
I1
ssg33
(dp598
I7
I1
ssg249
(dp599
I8
I1
ssS'snare'
p600
(dp601
I1
I1
ssS'crohns disease'
p602
(dp603
I3
I1
ssS'shoulder'
p604
(dp605
I6
I1
ssg55
(dp606
I4
I1
ssS'cholesterol'
p607
(dp608
I4
I1
ssS'lung'
p609
(dp610
I6
I1
ssg300
(dp611
I0
I1
sI2
I1
sI3
I1
sI5
I1
ssg59
(dp612
I0
I1
sI9
I1
sI4
I1
sI7
I1
ssS'elderly'
p613
(dp614
I8
I1
sI6
I1
sI7
I1
ssS'sex'
p615
(dp616
I0
I1
ssS'colectomies'
p617
(dp618
I4
I1
ssS'genetics'
p619
(dp620
I0
I1
ssS'colonic polyp'
p621
(dp622
I1
I1
ssS'pea'
p623
(dp624
I0
I1
ssg93
(dp625
I9
I1
ssg95
(dp626
I0
I1
sI2
I1
sI6
I1
sI7
I1
sI8
I1
sI9
I1
ssg335
(dp627
I3
I1
ssS'leg'
p628
(dp629
I2
I1
ssg99
(dp630
I0
I1
sI9
I1
sI2
I1
sI3
I1
ssS'truncus arteriosus'
p631
(dp632
I7
I1
ssS'pressure'
p633
(dp634
I8
I1
ssS'colectomy'
p635
(dp636
I2
I1
sI5
I1
ssg115
(dp637
I9
I1
sI4
I1
ssS'first aid'
p638
(dp639
I8
I1
sI7
I1
ssS'gene'
p640
(dp641
I0
I1
sI5
I1
ssS'adolescents'
p642
(dp643
I1
I1
ssS'family'
p644
(dp645
I0
I2
sI1
I1
sI2
I1
sI3
I1
sI4
I1
sI5
I1
sI7
I1
sI8
I1
sI9
I1
ssg181
(dp646
I4
I1
ssS'color'
p647
(dp648
I2
I1
sI3
I3
ssg503
(dp649
I4
I1
ssS'c poly'
p650
(dp651
I1
I1
ssS'colon'
p652
(dp653
I0
I4
sI1
I3
sI2
I1
sI3
I2
sI4
I2
sI5
I2
sI9
I1
ssS'sounds'
p654
(dp655
I6
I1
ssS'noma'
p656
(dp657
I2
I1
sI5
I1
ssg354
(dp658
I1
I1
ssg139
(dp659
I1
I1
ssg141
(dp660
I9
I1
ssS'war'
p661
(dp662
I5
I1
ssS'adenomas'
p663
(dp664
I2
I1
ssS'polyps'
p665
(dp666
I0
I3
sI1
I4
sI2
I1
sI3
I1
sI4
I1
sI5
I1
ssS'nomas'
p667
(dp668
I2
I1
ssS'copi'
p669
(dp670
I5
I1
ssS'adult'
p671
(dp672
I1
I1
ssg365
(dp673
I1
I1
ssS'smoking'
p674
(dp675
I4
I1
ssS'rectum'
p676
(dp677
I0
I1
sI2
I1
sI3
I1
ssg157
(dp678
I0
I1
sI1
I2
sI2
I1
sI3
I1
sI4
I3
sI5
I1
sI6
I1
sI7
I1
sI8
I1
sI9
I2
ssg159
(dp679
I7
I1
ssS'sound'
p680
(dp681
I6
I1
ssg161
(dp682
I9
I1
ssg167
(dp683
I0
I1
ssg169
(dp684
I8
I1
sI7
I1
ssg313
(dp685
I8
I1
ssg77
(dp686
I0
I1
sI2
I1
ssg177
(dp687
I0
I1
sI3
I1
sI4
I2
sI5
I1
sI6
I2
sI7
I1
sI8
I1
ssg179
(dp688
I8
I1
sI7
I1
ssg379
(dp689
I0
I1
sI1
I2
sI2
I1
sI3
I1
sI4
I1
sI5
I1
sI6
I1
sI7
I1
sI8
I1
sI9
I1
ssg125
(dp690
I0
I1
sI9
I1
sI8
I1
ssS'adults'
p691
(dp692
I1
I1
ssg185
(dp693
I8
I1
sI1
I1
sI9
I1
sI6
I1
sI7
I1
ssS'sibling'
p694
(dp695
I4
I1
ssg187
(dp696
I6
I1
ssg31
(dp697
I9
I1
sI4
I1
ssS'ests'
p698
(dp699
I2
I1
ssg195
(dp700
I8
I1
ssg197
(dp701
I8
I1
sI2
I2
sI5
I1
sI7
I1
ssg27
(dp702
I0
I1
sI1
I1
ssS'role'
p703
(dp704
I4
I1
ssg217
(dp705
I2
I1
ssS'colonoscopies'
p706
(dp707
I5
I1
ssg221
(dp708
I0
I1
ssg227
(dp709
I8
I1
sI6
I1
ssS'colonic polyps'
p710
(dp711
I1
I1
ssg205
(dp712
I9
I1
sI6
I1
ssS'overweight'
p713
(dp714
I6
I1
ssS'adenoma'
p715
(dp716
I2
I1
sI5
I1
ssg233
(dp717
I7
I1
ssg407
(dp718
I7
I1
ssg570
(dp719
I2
I1
sI4
I1
ssg239
(dp720
I9
I1
sI7
I1
ssS'polyp'
p721
(dp722
I0
I3
sI1
I5
sI2
I1
sI3
I1
sI4
I1
sI5
I1
ssg247
(dp723
I3
I1
sI7
I1
ssS'inflammatory bowel disease'
p724
(dp725
I7
I1
ssg251
(dp726
I5
I1
sssS'20'
p727
(dp728
S'panic disorder'
p729
(dp730
I8
I1
ssS'extremities'
p731
(dp732
I9
I1
sI4
I1
sI6
I1
ssS'thyroid'
p733
(dp734
I6
I1
ssg19
(dp735
I4
I1
sI5
I1
ssg159
(dp736
I0
I1
ssg211
(dp737
I8
I1
sI9
I1
sI7
I1
ssg29
(dp738
I2
I3
sI3
I2
sI4
I1
ssg274
(dp739
I2
I1
ssS'appendicitis'
p740
(dp741
I1
I1
ssg85
(dp742
I6
I1
ssg31
(dp743
I0
I1
sI1
I1
sI5
I1
sI6
I1
sI7
I1
sI8
I1
ssg447
(dp744
I4
I2
sI5
I1
ssg33
(dp745
I1
I1
ssg171
(dp746
I7
I1
ssS'seizure'
p747
(dp748
I9
I1
ssS'anemia'
p749
(dp750
I1
I1
ssS'sickle cell anemia'
p751
(dp752
I1
I1
ssS'air bags'
p753
(dp754
I5
I1
ssg55
(dp755
I0
I1
sI1
I1
sI3
I1
sI7
I1
ssg181
(dp756
I3
I1
ssg298
(dp757
I4
I1
ssg462
(dp758
I0
I1
sI3
I1
sI5
I1
ssS'ptsd'
p759
(dp760
I3
I3
ssg300
(dp761
I6
I1
ssg59
(dp762
I1
I1
sI3
I1
ssg63
(dp763
I0
I1
sI1
I1
sI5
I1
ssS'rivers'
p764
(dp765
I3
I1
sI5
I1
ssg67
(dp766
I1
I1
ssg71
(dp767
I6
I1
sI7
I1
ssS'air'
p768
(dp769
I5
I1
ssS'multiple injuries'
p770
(dp771
I7
I2
ssS'lead'
p772
(dp773
I3
I1
ssg319
(dp774
I5
I1
ssg79
(dp775
I1
I1
sI9
I2
ssg81
(dp776
I1
I1
ssg441
(dp777
I2
I1
ssg326
(dp778
I5
I1
ssS'disorder panic'
p779
(dp780
I8
I1
ssS'stec'
p781
(dp782
I7
I1
ssg93
(dp783
I6
I1
ssg95
(dp784
I8
I1
sI1
I1
sI5
I1
sI6
I2
sI7
I1
ssS'unconscious'
p785
(dp786
I7
I1
ssg628
(dp787
I6
I1
ssg99
(dp788
I0
I1
sI1
I1
sI2
I1
sI4
I2
sI6
I1
sI7
I1
sI9
I1
ssS'rue'
p789
(dp790
I8
I1
sI1
I1
ssS'epidemiology'
p791
(dp792
I2
I1
ssS'body region'
p793
(dp794
I4
I1
ssg113
(dp795
I0
I1
sI4
I1
sI5
I1
sI6
I1
sI7
I1
sI8
I1
sI9
I1
ssg115
(dp796
I0
I1
sI1
I1
sI5
I1
sI6
I1
sI7
I1
sI8
I1
ssS'paralysis'
p797
(dp798
I6
I1
ssS'upper extremities'
p799
(dp800
I6
I1
ssS'body regions'
p801
(dp802
I4
I1
ssS'ribe'
p803
(dp804
I3
I1
ssg501
(dp805
I6
I1
sI7
I1
ssg125
(dp806
I8
I1
sI3
I1
sI4
I1
ssS'trachea'
p807
(dp808
I5
I1
ssg503
(dp809
I0
I1
ssS'ants'
p810
(dp811
I0
I1
ssS'lower extremity'
p812
(dp813
I7
I1
ssS'guar'
p814
(dp815
I0
I1
sI9
I1
sI6
I1
sI7
I1
ssg129
(dp816
I1
I1
ssS'legs'
p817
(dp818
I6
I1
ssg661
(dp819
I2
I1
ssS'appendix'
p820
(dp821
I1
I1
ssg157
(dp822
I0
I2
sI1
I1
sI3
I1
sI5
I1
sI6
I1
sI8
I1
sI9
I2
ssg23
(dp823
I1
I1
ssg527
(dp824
I4
I1
ssS'extremity'
p825
(dp826
I0
I1
sI7
I1
ssS'motor vehicle'
p827
(dp828
I8
I1
sI2
I2
sI3
I1
sI4
I2
sI5
I1
ssS'bee'
p829
(dp830
I3
I1
sI5
I1
ssg77
(dp831
I1
I1
sI6
I1
sI7
I1
ssg177
(dp832
I0
I3
sI1
I1
sI2
I1
sI3
I1
sI5
I2
sI6
I4
sI7
I2
sI9
I1
ssS'voice'
p833
(dp834
I9
I1
ssS'air bag'
p835
(dp836
I5
I1
ssS'chest wall'
p837
(dp838
I7
I1
ssS'nursing'
p839
(dp840
I2
I1
ssS'pons'
p841
(dp842
I2
I2
ssg185
(dp843
I0
I1
sI5
I1
ssg187
(dp844
I3
I1
ssg191
(dp845
I3
I1
ssg386
(dp846
I7
I1
ssg195
(dp847
I3
I1
ssg197
(dp848
I0
I1
sI2
I1
sI3
I1
sI4
I1
sI5
I1
sI6
I2
sI7
I1
sI8
I2
sI9
I1
ssS'radiation'
p849
(dp850
I7
I1
ssg27
(dp851
I8
I1
sI2
I1
ssg217
(dp852
I8
I1
ssS'panic'
p853
(dp854
I8
I2
ssg221
(dp855
I1
I1
sI9
I2
ssg227
(dp856
I0
I1
sI1
I1
sI5
I1
sI6
I1
sI8
I1
sI9
I2
ssg205
(dp857
I1
I1
sI9
I1
ssS'abdomen'
p858
(dp859
I0
I1
sI9
I1
sI2
I1
sI6
I1
sI7
I1
ssS'persons'
p860
(dp861
I2
I1
ssg233
(dp862
I0
I1
ssg235
(dp863
I3
I1
ssg570
(dp864
I0
I1
ssg239
(dp865
I0
I1
sI8
I1
sI9
I1
ssg410
(dp866
I2
I1
ssg243
(dp867
I0
I2
sI1
I1
sI2
I1
sI4
I1
sI5
I1
sI6
I1
sI7
I1
sI8
I1
sI9
I1
ssS'drive'
p868
(dp869
I0
I1
sI3
I1
sI5
I1
ssg575
(dp870
I2
I1
ssg249
(dp871
I8
I1
sI9
I1
ssg417
(dp872
I8
I2
sI1
I1
ssS'mastectomy'
p873
(dp874
I7
I1
ssg253
(dp875
I1
I1
sI4
I1
sssS'21'
p876
(dp877
S'dance'
p878
(dp879
I8
I1
ssS'national institutes of health'
p880
(dp881
I0
I1
ssS'arthralgias'
p882
(dp883
I0
I2
sI1
I1
sI2
I1
sI4
I1
sI6
I1
ssS'skin'
p884
(dp885
I8
I1
sI7
I1
ssS'nephritis'
p886
(dp887
I7
I1
ssg731
(dp888
I4
I1
ssg29
(dp889
I0
I1
sI1
I1
sI2
I1
sI3
I1
sI4
I1
sI5
I1
sI6
I1
sI7
I1
sI8
I1
sI9
I1
ssg278
(dp890
I1
I1
sI3
I1
sI9
I1
sI6
I1
sI7
I1
ssS'adl'
p891
(dp892
I2
I1
ssS'mortality'
p893
(dp894
I7
I1
ssg31
(dp895
I8
I1
sI9
I1
sI3
I1
sI7
I1
ssg447
(dp896
I9
I1
ssS'medical subject heading'
p897
(dp898
I1
I1
ssS'biopsy'
p899
(dp900
I7
I1
ssS'arab'
p901
(dp902
I3
I1
ssS'joint'
p903
(dp904
I8
I2
sI7
I1
ssS'inuit'
p905
(dp906
I2
I1
ssS'knee joint'
p907
(dp908
I8
I1
ssS'capillary'
p909
(dp910
I8
I1
ssS'e nose'
p911
(dp912
I5
I1
ssS'skin rash'
p913
(dp914
I7
I1
ssg49
(dp915
I0
I1
sI9
I1
ssg55
(dp916
I0
I1
sI1
I3
ssg460
(dp917
I4
I1
ssS'nose'
p918
(dp919
I9
I1
sI5
I2
ssg300
(dp920
I2
I1
ssS'gout'
p921
(dp922
I9
I1
ssg59
(dp923
I0
I2
sI1
I1
sI2
I1
sI4
I1
sI6
I1
ssg65
(dp924
I8
I1
ssg67
(dp925
I6
I1
ssS'laboratory'
p926
(dp927
I9
I1
ssg829
(dp928
I3
I1
ssg317
(dp929
I1
I1
ssS'fingers'
p930
(dp931
I9
I1
ssg324
(dp932
I0
I1
ssS'finger'
p933
(dp934
I9
I1
ssS'medical subject headings'
p935
(dp936
I1
I1
ssg87
(dp937
I0
I1
sI1
I1
ssg331
(dp938
I8
I1
ssS'architecture'
p939
(dp940
I6
I1
ssg95
(dp941
I9
I2
sI7
I1
ssg99
(dp942
I1
I1
sI3
I1
sI9
I1
sI6
I2
sI7
I1
ssS'stem'
p943
(dp944
I3
I1
sI4
I1
sI5
I1
sI6
I1
sI7
I1
ssg103
(dp945
I4
I1
ssg115
(dp946
I8
I1
sI9
I1
sI3
I1
sI7
I1
ssg119
(dp947
I8
I1
ssS'fatigue'
p948
(dp949
I0
I1
sI1
I1
sI2
I1
sI6
I1
sI7
I1
sI8
I1
ssg803
(dp950
I3
I1
ssS'subject headings'
p951
(dp952
I1
I1
ssS'proteinuria'
p953
(dp954
I0
I1
sI1
I1
sI3
I1
ssS'dna'
p955
(dp956
I0
I1
sI1
I1
sI2
I1
sI3
I1
sI4
I1
sI5
I3
sI6
I1
sI7
I1
sI8
I1
sI9
I1
ssS'colchicine'
p957
(dp958
I9
I1
ssg139
(dp959
I9
I1
sI6
I1
ssS'sunlight'
p960
(dp961
I7
I1
ssS'ankle'
p962
(dp963
I8
I1
ssg147
(dp964
I1
I1
ssS'erythema'
p965
(dp966
I3
I1
sI4
I1
ssg157
(dp967
I0
I2
sI1
I1
sI2
I2
sI3
I1
sI4
I2
sI6
I1
sI7
I1
sI8
I1
sI9
I2
ssS'morbidity'
p968
(dp969
I7
I1
ssS'fly'
p970
(dp971
I0
I1
sI1
I1
sI2
I1
sI3
I1
sI5
I1
sI6
I1
ssS'lupus nephritis'
p972
(dp973
I7
I1
ssg167
(dp974
I0
I1
sI9
I1
sI7
I1
ssg169
(dp975
I3
I1
ssg171
(dp976
I3
I1
ssg313
(dp977
I2
I1
ssS'chronic renal failure'
p978
(dp979
I3
I1
ssg177
(dp980
I3
I3
sI4
I2
sI7
I2
ssS'arthralgia'
p981
(dp982
I0
I2
sI1
I1
sI2
I1
sI4
I1
sI6
I1
ssS'lower extremities'
p983
(dp984
I4
I1
ssg379
(dp985
I9
I1
ssg125
(dp986
I9
I1
sI5
I1
ssS'joint pain'
p987
(dp988
I7
I1
ssg185
(dp989
I0
I2
sI1
I2
sI2
I2
sI3
I2
sI4
I4
sI5
I4
sI6
I2
sI7
I2
sI8
I1
sI9
I2
ssg187
(dp990
I9
I1
ssg698
(dp991
I5
I1
ssg195
(dp992
I3
I1
ssg197
(dp993
I8
I1
sI7
I1
ssS'systemic lupus erythematosus'
p994
(dp995
I3
I1
sI4
I1
ssS'subject heading'
p996
(dp997
I1
I1
ssg27
(dp998
I2
I1
ssS'ankle joint'
p999
(dp1000
I8
I1
ssg853
(dp1001
I7
I1
ssg221
(dp1002
I4
I1
ssS'butterfly'
p1003
(dp1004
I0
I1
sI1
I1
sI2
I1
sI3
I1
sI5
I1
sI6
I1
ssg225
(dp1005
I8
I1
ssg227
(dp1006
I9
I1
sI7
I1
ssS'wrists'
p1007
(dp1008
I7
I1
ssg205
(dp1009
I3
I1
ssg233
(dp1010
I8
I1
ssS'wrist'
p1011
(dp1012
I7
I1
ssg407
(dp1013
I8
I1
ssS'butter'
p1014
(dp1015
I0
I1
sI1
I1
sI2
I1
sI3
I1
sI5
I1
sI6
I1
ssS'antibodies'
p1016
(dp1017
I8
I1
sI9
I1
sI3
I1
ssg243
(dp1018
I8
I1
ssS'light'
p1019
(dp1020
I7
I1
ssS'cheek'
p1021
(dp1022
I5
I1
ssS'joint pains'
p1023
(dp1024
I7
I1
ssg417
(dp1025
I3
I1
sI7
I1
ssg253
(dp1026
I4
I1
sssS'22'
p1027
(dp1028
S'infant'
p1029
(dp1030
I0
I1
ssS'bile duct'
p1031
(dp1032
I7
I1
ssg365
(dp1033
I2
I1
ssg9
(dp1034
I7
I1
ssg15
(dp1035
I3
I1
sI7
I1
ssg884
(dp1036
I4
I1
ssS'appetite'
p1037
(dp1038
I0
I1
sI1
I1
sI2
I1
sI6
I1
sI8
I1
ssg433
(dp1039
I2
I1
ssg740
(dp1040
I0
I2
sI1
I4
sI2
I2
sI3
I1
sI4
I2
sI5
I2
sI6
I2
sI8
I1
sI9
I1
ssg278
(dp1041
I1
I1
sI4
I1
ssg31
(dp1042
I8
I1
sI9
I1
ssS'affect'
p1043
(dp1044
I0
I1
sI6
I1
ssg289
(dp1045
I0
I1
sI1
I1
sI2
I1
sI6
I1
ssS'gallstones'
p1046
(dp1047
I7
I1
ssg49
(dp1048
I9
I1
ssg55
(dp1049
I0
I2
sI1
I4
sI2
I2
sI3
I1
sI4
I2
sI5
I2
sI6
I2
sI7
I1
sI8
I1
sI9
I1
ssS'appendectomy'
p1050
(dp1051
I4
I2
sI6
I1
ssg300
(dp1052
I0
I1
sI9
I1
sI2
I1
sI6
I1
ssg63
(dp1053
I1
I1
sI2
I1
sI3
I1
sI4
I1
sI6
I1
sI8
I1
ssg71
(dp1054
I9
I1
sI6
I1
ssg317
(dp1055
I0
I1
sI1
I1
sI2
I1
sI6
I1
sI8
I1
ssS'affects'
p1056
(dp1057
I0
I1
sI6
I1
ssS'pelvic pain'
p1058
(dp1059
I9
I1
ssg77
(dp1060
I9
I1
ssg79
(dp1061
I8
I1
ssS'inflammation'
p1062
(dp1063
I1
I1
ssS'scalp'
p1064
(dp1065
I8
I1
ssg37
(dp1066
I5
I1
ssg331
(dp1067
I3
I1
ssg95
(dp1068
I9
I1
sI7
I1
ssg99
(dp1069
I1
I1
sI2
I1
sI4
I1
sI6
I1
sI7
I1
sI8
I1
ssg338
(dp1070
I0
I1
sI1
I1
sI2
I2
sI6
I1
ssg103
(dp1071
I7
I1
ssg107
(dp1072
I7
I1
ssS'bile ducts'
p1073
(dp1074
I7
I1
ssg115
(dp1075
I8
I1
sI9
I1
ssg119
(dp1076
I0
I1
ssS'logic'
p1077
(dp1078
I9
I1
ssg810
(dp1079
I0
I1
ssS'gallstone'
p1080
(dp1081
I7
I1
ssg133
(dp1082
I7
I1
ssS'loa'
p1083
(dp1084
I6
I1
ssS'peptic ulcer'
p1085
(dp1086
I3
I1
ssg139
(dp1087
I2
I1
ssS'life'
p1088
(dp1089
I2
I1
ssg669
(dp1090
I4
I1
ssS'infection'
p1091
(dp1092
I3
I1
ssg151
(dp1093
I7
I1
ssg155
(dp1094
I3
I1
ssg157
(dp1095
I0
I2
sI2
I1
sI5
I1
sI6
I1
sI7
I1
sI8
I1
sI9
I1
ssg23
(dp1096
I4
I1
ssg680
(dp1097
I8
I1
sI2
I1
sI4
I1
sI5
I1
sI7
I1
ssS'bile'
p1098
(dp1099
I7
I1
ssg531
(dp1100
I4
I1
ssg167
(dp1101
I8
I1
ssg171
(dp1102
I4
I1
ssg313
(dp1103
I0
I1
ssg175
(dp1104
I7
I1
ssg177
(dp1105
I2
I3
sI4
I1
sI5
I1
sI6
I1
sI7
I1
sI8
I1
sI9
I1
ssS'infants'
p1106
(dp1107
I0
I1
ssg379
(dp1108
I9
I1
ssg125
(dp1109
I8
I1
ssS'pain abdominal'
p1110
(dp1111
I5
I1
ssS'leukocytosis'
p1112
(dp1113
I3
I1
ssg247
(dp1114
I7
I1
ssg185
(dp1115
I0
I1
sI1
I1
sI2
I1
sI3
I1
sI4
I1
sI9
I1
ssg187
(dp1116
I9
I2
sI3
I1
sI4
I1
sI5
I1
sI7
I2
ssg386
(dp1117
I1
I1
ssS'scar'
p1118
(dp1119
I8
I1
sI7
I1
ssg197
(dp1120
I0
I2
sI8
I1
sI9
I2
sI5
I1
sI7
I1
ssS'kidney'
p1121
(dp1122
I8
I1
ssS'abscess'
p1123
(dp1124
I4
I1
ssg553
(dp1125
I2
I1
ssg27
(dp1126
I0
I1
sI1
I2
sI2
I2
sI6
I1
sI9
I1
ssg215
(dp1127
I9
I1
ssg217
(dp1128
I0
I1
sI5
I1
ssg221
(dp1129
I8
I1
sI3
I1
ssg223
(dp1130
I3
I1
ssg225
(dp1131
I8
I1
ssg227
(dp1132
I0
I1
sI1
I2
sI2
I1
sI3
I6
sI4
I1
sI5
I1
sI6
I1
sI8
I2
sI9
I2
ssg83
(dp1133
I7
I1
ssg205
(dp1134
I5
I1
ssg858
(dp1135
I2
I1
sI6
I1
sI7
I1
ssS'ova'
p1136
(dp1137
I1
I1
ssg237
(dp1138
I7
I1
ssg243
(dp1139
I1
I2
sI2
I2
sI3
I1
sI4
I1
sI5
I1
sI6
I2
sI7
I1
sI8
I1
sI9
I2
ssS'peritonitis'
p1140
(dp1141
I4
I1
ssg575
(dp1142
I2
I1
ssg820
(dp1143
I1
I2
sI4
I3
sI6
I1
ssg417
(dp1144
I8
I1
ssg251
(dp1145
I2
I1
sssS'23'
p1146
(dp1147
S'pleural effusion'
p1148
(dp1149
I3
I1
ssg261
(dp1150
I8
I1
ssS'radio'
p1151
(dp1152
I9
I1
sI7
I1
ssg211
(dp1153
I0
I1
sI1
I1
sI2
I1
sI3
I1
sI4
I1
sI5
I1
sI6
I1
sI7
I1
sI8
I2
sI9
I3
ssg278
(dp1154
I5
I1
ssg31
(dp1155
I0
I1
sI2
I1
ssg513
(dp1156
I9
I1
ssg33
(dp1157
I8
I1
ssg451
(dp1158
I7
I1
ssg37
(dp1159
I8
I1
sI1
I1
ssS'inflation'
p1160
(dp1161
I5
I1
ssg41
(dp1162
I6
I1
ssg289
(dp1163
I8
I1
ssg291
(dp1164
I7
I1
ssS'oxygen'
p1165
(dp1166
I1
I1
sI2
I1
sI4
I1
sI5
I1
sI6
I1
sI7
I1
sI8
I1
ssg49
(dp1167
I0
I1
sI5
I1
sI6
I1
ssg55
(dp1168
I0
I1
sI2
I2
sI3
I1
sI5
I2
sI7
I1
sI8
I1
sI9
I1
ssg300
(dp1169
I0
I1
sI1
I2
ssg59
(dp1170
I1
I2
sI5
I1
ssS'pleura'
p1171
(dp1172
I3
I2
ssg305
(dp1173
I8
I2
ssg225
(dp1174
I0
I1
sI9
I2
sI3
I1
sI7
I1
ssS'oral manifestations'
p1175
(dp1176
I9
I1
ssS'drug abuser'
p1177
(dp1178
I7
I1
ssg171
(dp1179
I9
I1
ssg319
(dp1180
I8
I1
ssg87
(dp1181
I0
I1
sI8
I1
sI7
I1
ssg329
(dp1182
I6
I1
ssg331
(dp1183
I0
I1
sI1
I1
sI2
I1
sI3
I1
sI5
I1
sI6
I1
sI7
I1
sI9
I1
ssS'respiratory rate'
p1184
(dp1185
I4
I1
sI6
I1
ssS'oral manifestation'
p1186
(dp1187
I9
I1
ssS'attention'
p1188
(dp1189
I3
I1
ssg95
(dp1190
I9
I2
sI6
I2
sI7
I1
ssg99
(dp1191
I8
I1
sI5
I2
sI7
I1
ssg338
(dp1192
I8
I1
ssg633
(dp1193
I2
I1
sI3
I1
ssg340
(dp1194
I0
I1
sI1
I1
sI2
I1
sI3
I1
sI4
I2
sI5
I2
sI6
I1
sI7
I2
sI9
I3
ssS'heparin'
p1195
(dp1196
I8
I1
ssS'radiography'
p1197
(dp1198
I9
I1
sI7
I1
ssS'sputum'
p1199
(dp1200
I9
I1
sI3
I1
sI6
I1
ssg115
(dp1201
I0
I1
sI2
I1
ssS'smoke'
p1202
(dp1203
I1
I1
sI2
I1
sI4
I1
sI5
I1
ssS'cartilage'
p1204
(dp1205
I1
I1
ssS'amber'
p1206
(dp1207
I6
I1
ssg503
(dp1208
I2
I1
ssS'respirator'
p1209
(dp1210
I0
I1
sI1
I1
sI4
I1
sI6
I2
sI9
I2
ssg609
(dp1211
I1
I1
sI2
I1
sI4
I1
ssg89
(dp1212
I0
I1
sI9
I1
sI3
I1
ssS'internal medicine'
p1213
(dp1214
I7
I1
ssg137
(dp1215
I8
I1
ssg141
(dp1216
I0
I1
ssS'tachycardia'
p1217
(dp1218
I3
I1
ssg661
(dp1219
I7
I1
ssS'lungs'
p1220
(dp1221
I1
I1
ssg669
(dp1222
I1
I1
ssg674
(dp1223
I0
I1
sI9
I1
ssg157
(dp1224
I0
I3
sI1
I3
sI2
I2
sI3
I1
sI4
I1
sI5
I2
sI6
I1
sI8
I1
ssS'x ray'
p1225
(dp1226
I0
I1
sI1
I1
sI2
I1
sI3
I1
sI4
I1
sI5
I1
sI6
I1
sI8
I1
ssS'cardia'
p1227
(dp1228
I3
I1
ssg768
(dp1229
I8
I1
sI4
I1
ssg313
(dp1230
I1
I1
sI6
I1
ssS'pneumonia'
p1231
(dp1232
I0
I2
sI7
I1
ssg77
(dp1233
I9
I1
ssg177
(dp1234
I1
I1
sI2
I1
sI4
I1
sI9
I1
ssg379
(dp1235
I0
I1
sI8
I1
sI5
I1
ssg125
(dp1236
I9
I1
sI4
I1
ssS'alcoholic'
p1237
(dp1238
I7
I1
ssS'prost'
p1239
(dp1240
I9
I1
ssg247
(dp1241
I9
I1
ssg529
(dp1242
I3
I1
ssg187
(dp1243
I0
I1
sI1
I2
sI2
I2
sI4
I3
sI5
I1
sI6
I3
sI8
I1
sI9
I3
ssg189
(dp1244
I8
I1
ssS'pathology'
p1245
(dp1246
I3
I1
ssS'respiratory medicine'
p1247
(dp1248
I0
I1
ssg197
(dp1249
I0
I1
sI3
I1
sI5
I1
sI6
I1
sI7
I1
sI8
I1
sI9
I2
ssS'blood pressure'
p1250
(dp1251
I2
I1
sI3
I1
ssg27
(dp1252
I8
I1
sI3
I1
ssg215
(dp1253
I0
I1
ssg217
(dp1254
I9
I1
sI3
I1
ssS'tachypnea'
p1255
(dp1256
I3
I1
sI5
I1
ssg221
(dp1257
I9
I2
ssS'literature'
p1258
(dp1259
I5
I1
ssg227
(dp1260
I8
I1
sI9
I1
sI3
I1
ssS'axilla'
p1261
(dp1262
I7
I1
ssg233
(dp1263
I2
I1
sI4
I1
ssg235
(dp1264
I1
I1
sI2
I1
sI3
I2
ssg570
(dp1265
I2
I1
ssg249
(dp1266
I8
I1
sI9
I1
ssg412
(dp1267
I1
I1
sI3
I1
sI4
I1
sI5
I2
sI6
I1
sI8
I1
ssS'dog'
p1268
(dp1269
I8
I1
ssS'nasa'
p1270
(dp1271
I3
I1
sI7
I1
sssS'28'
p1272
(dp1273
S'breastfeeding'
p1274
(dp1275
I3
I2
ssg259
(dp1276
I8
I1
ssS'gynecology'
p1277
(dp1278
I9
I1
ssg9
(dp1279
I0
I1
sI1
I1
sI9
I1
sI8
I1
sI7
I1
ssS'al 1'
p1280
(dp1281
I3
I1
ssS'human'
p1282
(dp1283
I1
I1
sI7
I1
ssS'diabetes mellitus'
p1284
(dp1285
I1
I1
ssS'milk'
p1286
(dp1287
I0
I1
sI1
I1
sI3
I2
sI5
I2
sI6
I1
sI8
I1
ssS'pregnancy test'
p1288
(dp1289
I8
I1
sI2
I2
sI4
I1
sI6
I1
ssS'pregnancy tests'
p1290
(dp1291
I4
I1
ssg437
(dp1292
I0
I3
sI1
I1
sI2
I1
sI4
I1
sI5
I1
sI6
I1
sI7
I1
sI8
I1
sI9
I1
ssg278
(dp1293
I5
I2
sI7
I1
ssg443
(dp1294
I6
I1
ssg31
(dp1295
I8
I2
sI1
I1
sI9
I1
ssg449
(dp1296
I6
I1
ssg451
(dp1297
I1
I1
ssg41
(dp1298
I9
I1
ssS'breast'
p1299
(dp1300
I3
I3
sI5
I2
ssS'birth'
p1301
(dp1302
I0
I1
sI5
I1
sI6
I2
ssS'galactorrhea'
p1303
(dp1304
I0
I1
sI5
I4
sI7
I1
ssg49
(dp1305
I8
I1
sI9
I1
ssg55
(dp1306
I8
I1
sI4
I1
ssS'nipple'
p1307
(dp1308
I0
I1
sI1
I1
sI2
I1
sI3
I2
sI5
I1
sI6
I1
sI8
I1
sI9
I1
ssS's period'
p1309
(dp1310
I4
I1
ssg300
(dp1311
I0
I1
sI3
I1
sI5
I1
sI6
I1
ssS'ecology'
p1312
(dp1313
I9
I1
ssg61
(dp1314
I9
I1
sI2
I2
ssS'humans'
p1315
(dp1316
I1
I1
ssS'back'
p1317
(dp1318
I0
I1
sI4
I1
ssg67
(dp1319
I2
I1
sI6
I1
ssS's periods'
p1320
(dp1321
I4
I1
ssg324
(dp1322
I3
I1
ssS'womens health'
p1323
(dp1324
I3
I1
ssS'aby'
p1325
(dp1326
I6
I1
ssg331
(dp1327
I3
I2
ssg623
(dp1328
I4
I1
ssg95
(dp1329
I9
I1
sI5
I1
sI7
I1
ssg99
(dp1330
I0
I4
sI2
I2
sI3
I2
sI4
I2
sI5
I4
sI6
I1
sI7
I1
sI8
I1
ssg115
(dp1331
I8
I2
sI1
I1
sI9
I1
ssS'uterine bleeding'
p1332
(dp1333
I2
I2
ssg495
(dp1334
I6
I1
ssS'mens health'
p1335
(dp1336
I3
I1
ssg573
(dp1337
I2
I1
ssS'emotion'
p1338
(dp1339
I1
I1
ssg125
(dp1340
I6
I1
ssg503
(dp1341
I8
I1
ssS'pregnancy'
p1342
(dp1343
I0
I1
sI2
I2
sI3
I1
sI4
I3
sI6
I1
sI8
I1
sI9
I1
ssS'prolactin'
p1344
(dp1345
I0
I3
sI1
I1
sI2
I1
sI4
I1
sI5
I1
sI6
I1
sI7
I1
sI8
I1
sI9
I1
ssS'aven'
p1346
(dp1347
I6
I1
ssg139
(dp1348
I0
I1
sI5
I1
sI6
I1
ssS'vagina'
p1349
(dp1350
I9
I1
sI2
I1
ssg515
(dp1351
I6
I1
ssS'secretion'
p1352
(dp1353
I5
I1
ssS'type 1 diabetes mellitus'
p1354
(dp1355
I1
I1
ssS'tfe'
p1356
(dp1357
I3
I2
ssg386
(dp1358
I4
I1
ssg365
(dp1359
I0
I1
sI5
I1
ssg157
(dp1360
I0
I2
sI1
I1
sI3
I1
sI5
I1
sI6
I1
sI8
I2
ssg527
(dp1361
I0
I2
sI2
I1
sI3
I2
sI4
I1
sI5
I1
ssg161
(dp1362
I9
I1
ssg167
(dp1363
I2
I1
sI6
I1
ssg829
(dp1364
I4
I1
sI6
I2
ssg313
(dp1365
I4
I1
sI5
I2
ssg77
(dp1366
I9
I1
sI7
I1
ssg177
(dp1367
I1
I1
sI5
I1
ssS'menstruation'
p1368
(dp1369
I6
I1
ssg698
(dp1370
I1
I1
sI2
I1
sI4
I1
ssg185
(dp1371
I1
I1
sI2
I1
sI3
I1
ssS'breast milk'
p1372
(dp1373
I5
I2
ssS'birth control'
p1374
(dp1375
I6
I1
ssS'creatinine'
p1376
(dp1377
I1
I1
ssg1118
(dp1378
I6
I1
ssg545
(dp1379
I6
I1
ssS'motion'
p1380
(dp1381
I1
I1
ssS'hyperprolactinemia'
p1382
(dp1383
I0
I1
sI2
I1
ssg207
(dp1384
I0
I1
ssg27
(dp1385
I0
I3
sI1
I4
sI2
I2
sI4
I1
sI5
I1
sI6
I1
sI7
I1
sI8
I1
sI9
I1
ssg221
(dp1386
I7
I1
ssS'uteri'
p1387
(dp1388
I2
I2
ssg565
(dp1389
I6
I1
ssg205
(dp1390
I3
I1
sI5
I1
sI7
I1
ssg235
(dp1391
I3
I1
sI5
I1
ssg570
(dp1392
I8
I1
ssg239
(dp1393
I9
I1
ssg243
(dp1394
I8
I1
ssg1019
(dp1395
I3
I1
ssS'amenorrhea'
p1396
(dp1397
I0
I1
sI8
I1
ssg251
(dp1398
I0
I1
sI3
I1
ssS'uterus'
p1399
(dp1400
I9
I1
sssS'29'
p1401
(dp1402
S'bone density'
p1403
(dp1404
I5
I1
ssg181
(dp1405
I1
I1
ssg302
(dp1406
I5
I1
ssg59
(dp1407
I1
I2
ssg205
(dp1408
I2
I1
ssS'vascular disease'
p1409
(dp1410
I3
I1
ssS'ink'
p1411
(dp1412
I6
I1
ssg235
(dp1413
I3
I1
sI5
I1
ssS'cardiovascular disease'
p1414
(dp1415
I3
I1
ssS'primary prevention'
p1416
(dp1417
I2
I1
ssg247
(dp1418
I1
I2
sI3
I1
sI9
I1
ssg185
(dp1419
I1
I1
sI3
I1
ssg187
(dp1420
I8
I1
ssS'rage'
p1421
(dp1422
I5
I1
sI6
I1
ssg189
(dp1423
I1
I1
sI2
I2
sI3
I1
sI5
I1
sI7
I1
sI8
I1
ssS'factor f'
p1424
(dp1425
I3
I1
ssS'hormone replacement therapy'
p1426
(dp1427
I0
I2
sI8
I1
sI5
I1
sI1
I1
ssg501
(dp1428
I8
I1
ssg386
(dp1429
I3
I1
ssS'factors f'
p1430
(dp1431
I1
I1
ssS'fibroids'
p1432
(dp1433
I5
I1
ssg197
(dp1434
I0
I1
sI1
I1
sI5
I1
sI6
I1
sI8
I1
ssS'high blood pressure'
p1435
(dp1436
I3
I1
sI5
I1
ssS'osteoporosis'
p1437
(dp1438
I1
I1
sI3
I1
sI4
I1
sI7
I1
sI8
I1
sI9
I3
ssg1368
(dp1439
I6
I1
ssg199
(dp1440
I4
I1
ssS'recommended dietary allowance'
p1441
(dp1442
I7
I1
ssS'heart disease'
p1443
(dp1444
I1
I1
ssS'osteoporotic fracture'
p1445
(dp1446
I0
I1
ssS'broken bones'
p1447
(dp1448
I9
I1
ssg79
(dp1449
I8
I2
ssS'guideline'
p1450
(dp1451
I0
I1
sI1
I1
sI6
I1
sI8
I1
ssg81
(dp1452
I8
I1
ssg27
(dp1453
I0
I1
ssg177
(dp1454
I0
I1
sI1
I1
sI5
I2
sI6
I1
ssg324
(dp1455
I8
I1
sI2
I1
sI4
I2
sI7
I1
ssg278
(dp1456
I6
I1
ssg243
(dp1457
I5
I1
ssg1323
(dp1458
I2
I1
ssS'diet'
p1459
(dp1460
I9
I1
sI7
I1
ssg331
(dp1461
I4
I1
ssS'risk factors'
p1462
(dp1463
I1
I1
sI7
I1
ssg221
(dp1464
I8
I2
sI0
I1
ssg1088
(dp1465
I9
I1
ssS'hormone'
p1466
(dp1467
I0
I2
sI8
I2
sI2
I1
sI5
I1
sI1
I1
ssg447
(dp1468
I0
I1
sI1
I1
sI3
I1
sI9
I2
sI7
I2
ssg379
(dp1469
I8
I1
ssS'face'
p1470
(dp1471
I4
I1
ssg99
(dp1472
I0
I6
sI1
I3
sI2
I6
sI3
I2
sI4
I5
sI5
I5
sI6
I6
sI7
I4
sI8
I5
sI9
I1
ssS'ovaries'
p1473
(dp1474
I6
I1
ssS'fibroid'
p1475
(dp1476
I5
I1
ssg37
(dp1477
I1
I1
sI2
I2
sI3
I1
sI5
I1
sI7
I1
sI8
I1
ssg1136
(dp1478
I3
I1
sI6
I1
ssg41
(dp1479
I0
I2
sI1
I1
sI2
I1
sI4
I1
sI5
I2
sI7
I1
sI8
I2
ssg1299
(dp1480
I1
I1
ssS'menopause'
p1481
(dp1482
I0
I1
sI1
I1
sI2
I2
sI3
I2
sI4
I1
sI5
I2
sI6
I3
sI8
I1
sI9
I1
ssS'estrogen'
p1483
(dp1484
I9
I1
sI2
I1
sI6
I1
sI7
I1
ssg674
(dp1485
I1
I1
sI5
I1
sI6
I1
sI7
I1
ssg157
(dp1486
I0
I2
sI1
I2
sI2
I1
sI3
I1
sI4
I4
sI5
I3
sI6
I1
sI7
I1
sI8
I1
sI9
I1
ssg527
(dp1487
I0
I2
sI2
I3
sI4
I4
sI6
I1
sI7
I2
sI8
I1
ssg623
(dp1488
I4
I1
ssg31
(dp1489
I9
I1
sI6
I1
ssg640
(dp1490
I7
I1
ssS'tobacco'
p1491
(dp1492
I5
I1
ssg633
(dp1493
I3
I1
sI5
I1
ssS'risk factor'
p1494
(dp1495
I1
I1
sI3
I1
sI7
I1
ssS'endometriosis'
p1496
(dp1497
I5
I1
ssg1250
(dp1498
I3
I1
sI5
I1
ssg167
(dp1499
I9
I1
sI3
I1
ssg55
(dp1500
I8
I1
sI2
I1
ssg313
(dp1501
I3
I1
ssS'eel'
p1502
(dp1503
I3
I1
ssS'osteoporotic fractures'
p1504
(dp1505
I0
I1
ssS'risks'
p1506
(dp1507
I0
I1
ssg1202
(dp1508
I2
I1
ssg251
(dp1509
I9
I1
sI3
I1
sI6
I1
ssg115
(dp1510
I9
I1
sI6
I1
ssg103
(dp1511
I6
I1
sI7
I1
ssS'broken bone'
p1512
(dp1513
I9
I2
ssS'coronary heart disease'
p1514
(dp1515
I1
I1
ssg1335
(dp1516
I2
I1
ssg119
(dp1517
I5
I1
ssg300
(dp1518
I0
I1
sI1
I1
sI2
I1
sI3
I1
sI4
I3
sI5
I2
sI6
I1
sI7
I1
sI8
I1
sssS'1'
p1519
(dp1520
S'walking'
p1521
(dp1522
I0
I1
sI5
I1
ssS'p gp'
p1523
(dp1524
I3
I1
ssg1284
(dp1525
I1
I1
ssg270
(dp1526
I1
I1
ssg211
(dp1527
I0
I1
sI1
I1
sI3
I1
sI4
I5
sI6
I1
sI9
I2
ssg274
(dp1528
I5
I1
ssg278
(dp1529
I0
I1
sI9
I1
ssS'lower back pain'
p1530
(dp1531
I8
I1
sI5
I1
ssg1462
(dp1532
I4
I1
ssg31
(dp1533
I0
I1
sI1
I1
sI3
I1
sI6
I1
sI9
I1
ssg447
(dp1534
I4
I1
ssg33
(dp1535
I7
I1
ssg897
(dp1536
I6
I1
ssg451
(dp1537
I0
I1
ssS'hba1'
p1538
(dp1539
I1
I1
ssg249
(dp1540
I0
I1
sI1
I1
sI4
I5
sI6
I1
sI9
I2
ssS'snomed'
p1541
(dp1542
I9
I1
ssS'artery'
p1543
(dp1544
I7
I1
ssg289
(dp1545
I0
I1
ssg49
(dp1546
I1
I1
sI9
I1
ssg55
(dp1547
I0
I1
sI1
I1
sI5
I1
sI6
I2
sI7
I1
sI9
I3
ssg298
(dp1548
I0
I1
sI1
I1
sI4
I1
sI6
I1
sI9
I1
ssg300
(dp1549
I2
I1
ssg302
(dp1550
I2
I1
sI4
I2
ssg59
(dp1551
I8
I1
sI7
I3
ssg63
(dp1552
I8
I1
sI2
I1
ssg129
(dp1553
I7
I1
ssg1317
(dp1554
I0
I2
sI1
I1
sI2
I1
sI3
I1
sI4
I1
sI5
I1
sI6
I1
sI7
I1
sI8
I1
ssg167
(dp1555
I9
I1
sI2
I2
sI4
I1
ssg829
(dp1556
I4
I1
ssg73
(dp1557
I4
I1
ssg772
(dp1558
I5
I1
ssS'heart failure'
p1559
(dp1560
I7
I1
ssg319
(dp1561
I3
I1
ssS'asia'
p1562
(dp1563
I8
I1
ssg935
(dp1564
I6
I1
ssg37
(dp1565
I0
I1
sI1
I1
sI2
I1
sI3
I1
sI7
I1
sI9
I1
ssS'exercise'
p1566
(dp1567
I0
I1
sI1
I1
sI3
I1
sI6
I1
sI9
I2
ssg95
(dp1568
I8
I1
sI2
I1
sI4
I1
ssg99
(dp1569
I0
I1
sI2
I1
sI4
I1
sI6
I3
sI7
I1
sI9
I2
ssS'out patient'
p1570
(dp1571
I4
I1
ssg115
(dp1572
I0
I1
sI1
I1
sI3
I1
sI6
I1
sI9
I1
ssg640
(dp1573
I5
I3
ssg803
(dp1574
I0
I1
ssg573
(dp1575
I4
I3
ssg951
(dp1576
I6
I1
ssg181
(dp1577
I7
I1
ssg503
(dp1578
I0
I1
ssS'aneurysms'
p1579
(dp1580
I7
I1
ssg407
(dp1581
I5
I1
ssg1346
(dp1582
I2
I1
ssS'umls'
p1583
(dp1584
I6
I1
ssS'arms'
p1585
(dp1586
I4
I1
ssS'out patients'
p1587
(dp1588
I4
I1
ssg1217
(dp1589
I2
I1
ssS'minor'
p1590
(dp1591
I2
I1
ssg147
(dp1592
I6
I1
ssS'primary care'
p1593
(dp1594
I7
I1
ssg674
(dp1595
I4
I1
ssg157
(dp1596
I0
I1
sI1
I3
sI2
I1
sI3
I2
sI5
I1
sI6
I1
sI7
I3
sI8
I2
sI9
I1
ssg527
(dp1597
I6
I1
ssg243
(dp1598
I8
I1
sI2
I2
ssg1227
(dp1599
I2
I1
sI4
I1
ssg169
(dp1600
I0
I1
ssg171
(dp1601
I0
I1
ssg77
(dp1602
I4
I1
ssg177
(dp1603
I3
I1
ssS'aneurysm'
p1604
(dp1605
I7
I1
ssg379
(dp1606
I3
I1
sI5
I1
sI7
I3
ssg125
(dp1607
I8
I1
sI2
I1
sI6
I1
ssS'aorta'
p1608
(dp1609
I7
I1
ssg185
(dp1610
I9
I1
ssg187
(dp1611
I3
I2
sI5
I3
ssg189
(dp1612
I0
I1
sI1
I1
sI2
I1
sI3
I1
sI7
I1
sI9
I1
ssg698
(dp1613
I0
I1
sI6
I1
ssg386
(dp1614
I2
I1
ssS'work'
p1615
(dp1616
I2
I1
ssg195
(dp1617
I0
I1
ssg1494
(dp1618
I4
I1
ssg996
(dp1619
I6
I1
ssg197
(dp1620
I8
I1
ssg27
(dp1621
I0
I1
sI1
I1
sI3
I1
sI4
I2
sI6
I2
sI8
I1
sI9
I3
ssg217
(dp1622
I8
I1
ssS'stenosis'
p1623
(dp1624
I5
I2
ssg221
(dp1625
I2
I2
ssg225
(dp1626
I2
I1
ssg227
(dp1627
I0
I1
sI1
I1
sI2
I2
sI3
I1
sI4
I5
sI5
I3
sI6
I1
sI7
I1
sI8
I3
sI9
I2
ssS'back pain'
p1628
(dp1629
I8
I1
sI2
I1
sI3
I1
sI5
I1
sI7
I1
ssg205
(dp1630
I5
I1
ssg858
(dp1631
I2
I1
ssg233
(dp1632
I3
I1
ssg237
(dp1633
I8
I1
ssS'posters'
p1634
(dp1635
I5
I1
ssS'tuna'
p1636
(dp1637
I3
I1
ssg570
(dp1638
I0
I1
ssS'pain back'
p1639
(dp1640
I2
I1
ssg410
(dp1641
I4
I1
ssg412
(dp1642
I3
I1
ssg247
(dp1643
I5
I1
sI7
I1
ssg417
(dp1644
I0
I1
sI1
I1
sI4
I1
sI6
I2
sI8
I1
sI9
I1
ssS'spinal stenosis'
p1645
(dp1646
I5
I2
ssS'coronary artery disease'
p1647
(dp1648
I7
I1
ssg253
(dp1649
I5
I1
ssS'chronic disease'
p1650
(dp1651
I5
I1
sssS'3'
p1652
(dp1653
g233
(dp1654
I6
I1
ssg125
(dp1655
I2
I1
ssg59
(dp1656
I2
I1
ssS'osteosarcoma'
p1657
(dp1658
I2
I1
ssS'needle'
p1659
(dp1660
I7
I1
ssS'myositis'
p1661
(dp1662
I2
I1
ssS'metastasis'
p1663
(dp1664
I9
I1
ssg147
(dp1665
I9
I1
sI5
I1
sI6
I2
ssS'multiple pulmonary nodules'
p1666
(dp1667
I0
I1
ssS'bronchioloalveolar carcinoma'
p1668
(dp1669
I7
I1
ssS'lips'
p1670
(dp1671
I0
I1
ssg67
(dp1672
I2
I1
sI7
I1
ssg609
(dp1673
I0
I2
sI1
I1
sI4
I2
sI5
I2
sI6
I1
sI8
I1
sI9
I2
ssS'x rays'
p1674
(dp1675
I4
I1
sI7
I1
ssS'sarcoma'
p1676
(dp1677
I2
I1
ssg386
(dp1678
I3
I1
ssS'atelectasis'
p1679
(dp1680
I9
I1
ssg197
(dp1681
I8
I1
sI1
I2
sI4
I1
sI7
I1
ssg1077
(dp1682
I6
I1
ssg199
(dp1683
I0
I1
sI2
I1
sI7
I1
ssS'auc'
p1684
(dp1685
I9
I1
ssg656
(dp1686
I7
I1
ssS'dermatomyositis'
p1687
(dp1688
I2
I1
ssg139
(dp1689
I7
I1
ssS'smoking cessation'
p1690
(dp1691
I1
I1
ssg211
(dp1692
I0
I1
sI3
I2
sI4
I1
sI5
I1
sI8
I1
sI9
I1
ssg1562
(dp1693
I9
I1
ssg81
(dp1694
I8
I1
ssg274
(dp1695
I3
I1
ssg27
(dp1696
I8
I1
sI9
I1
sI3
I2
ssg177
(dp1697
I0
I2
sI1
I2
sI4
I4
sI5
I2
sI6
I2
sI8
I1
sI9
I2
ssg213
(dp1698
I0
I1
ssS'multiple pulmonary nodule'
p1699
(dp1700
I0
I1
ssg251
(dp1701
I4
I1
ssS'radiology'
p1702
(dp1703
I4
I1
ssS'needle biopsy'
p1704
(dp1705
I7
I1
ssS'incidental finding'
p1706
(dp1707
I4
I1
ssS'survival'
p1708
(dp1709
I7
I1
ssg187
(dp1710
I3
I1
sI5
I1
ssg221
(dp1711
I0
I2
sI2
I1
sI3
I1
ssS'hip'
p1712
(dp1713
I9
I1
sI2
I1
ssS'solitary pulmonary nodule'
p1714
(dp1715
I8
I2
sI1
I2
sI4
I2
sI0
I1
ssS'incidence'
p1716
(dp1717
I1
I1
ssg95
(dp1718
I4
I2
sI7
I1
ssg1202
(dp1719
I8
I1
sI3
I1
sI5
I1
sI6
I1
sI7
I1
ssg1225
(dp1720
I4
I1
sI5
I2
sI6
I1
sI7
I1
sI8
I1
sI9
I1
ssS'iodine'
p1721
(dp1722
I3
I1
ssg99
(dp1723
I0
I1
sI7
I1
ssg899
(dp1724
I7
I1
ssg1136
(dp1725
I1
I1
ssg586
(dp1726
I7
I1
ssS'frontal lobe'
p1727
(dp1728
I5
I1
sI6
I1
ssg1083
(dp1729
I7
I1
ssS'carcinoma'
p1730
(dp1731
I7
I1
ssS'alveolar carcinoma'
p1732
(dp1733
I7
I1
ssg105
(dp1734
I2
I1
ssg674
(dp1735
I0
I1
sI1
I1
ssg157
(dp1736
I0
I1
sI1
I1
sI2
I2
sI3
I1
sI5
I1
sI6
I1
sI7
I1
sI8
I1
sI9
I1
ssg227
(dp1737
I9
I1
ssg527
(dp1738
I7
I1
ssS'bronchi'
p1739
(dp1740
I7
I1
ssg185
(dp1741
I3
I1
sI7
I1
ssg529
(dp1742
I7
I1
ssg1197
(dp1743
I0
I1
ssg410
(dp1744
I0
I1
ssg49
(dp1745
I8
I1
ssS'tumors'
p1746
(dp1747
I7
I1
ssg167
(dp1748
I3
I3
ssg169
(dp1749
I6
I1
ssg829
(dp1750
I7
I1
ssS'tumor'
p1751
(dp1752
I7
I1
ssg77
(dp1753
I4
I1
sI7
I1
ssS'tissue'
p1754
(dp1755
I9
I2
sI2
I2
sI3
I1
ssS'neurologic examination'
p1756
(dp1757
I6
I1
ssg918
(dp1758
I1
I1
sI4
I1
sI9
I1
ssg417
(dp1759
I3
I1
ssS'mali'
p1760
(dp1761
I0
I1
ssS'metastases'
p1762
(dp1763
I0
I1
sI9
I1
ssg1151
(dp1764
I0
I2
sI3
I2
sI4
I1
ssg195
(dp1765
I9
I1
ssg253
(dp1766
I8
I1
ssg379
(dp1767
I2
I1
sssS'2'
p1768
(dp1769
g25
(dp1770
I0
I1
ssg261
(dp1771
I7
I1
ssS'pulmonary edema'
p1772
(dp1773
I0
I1
ssg1151
(dp1774
I0
I1
sI9
I1
sI5
I1
ssS'infectious diseases'
p1775
(dp1776
I5
I1
ssg211
(dp1777
I0
I2
sI1
I2
sI2
I1
sI3
I1
sI4
I1
sI6
I1
sI7
I1
sI8
I1
sI9
I1
ssg29
(dp1778
I3
I1
ssg274
(dp1779
I0
I1
ssg276
(dp1780
I2
I1
sI6
I1
ssS'hyphae'
p1781
(dp1782
I3
I1
ssg31
(dp1783
I5
I1
ssg513
(dp1784
I5
I1
ssg1225
(dp1785
I1
I1
sI2
I1
sI3
I1
sI4
I1
sI6
I1
sI7
I1
sI8
I1
ssS'cardiomegaly'
p1786
(dp1787
I4
I1
ssg899
(dp1788
I3
I1
ssS'virginia'
p1789
(dp1790
I3
I1
ssg43
(dp1791
I9
I1
ssS'tick'
p1792
(dp1793
I5
I1
ssg289
(dp1794
I9
I1
ssS'name'
p1795
(dp1796
I7
I1
ssg49
(dp1797
I8
I1
sI6
I1
ssS'cities'
p1798
(dp1799
I9
I1
ssg55
(dp1800
I4
I1
sI5
I1
sI6
I1
ssg918
(dp1801
I0
I1
ssg300
(dp1802
I5
I1
ssg57
(dp1803
I9
I1
ssg302
(dp1804
I0
I1
sI2
I1
ssg59
(dp1805
I6
I1
ssS'methods'
p1806
(dp1807
I8
I1
ssg63
(dp1808
I9
I1
ssg305
(dp1809
I9
I1
ssg223
(dp1810
I5
I1
ssS'nun'
p1811
(dp1812
I9
I1
ssg1258
(dp1813
I6
I1
ssg71
(dp1814
I2
I1
ssS'bacteria'
p1815
(dp1816
I4
I1
ssg319
(dp1817
I7
I1
ssS'microbiology'
p1818
(dp1819
I4
I1
sI7
I1
ssg177
(dp1820
I1
I1
sI2
I1
sI3
I1
sI6
I1
sI8
I1
sI9
I1
ssS'infectious disease'
p1821
(dp1822
I5
I1
ssS'method'
p1823
(dp1824
I8
I1
ssS'biology'
p1825
(dp1826
I4
I1
sI7
I1
ssg95
(dp1827
I0
I1
sI9
I1
sI2
I1
sI4
I1
ssg335
(dp1828
I2
I1
sI6
I1
ssg99
(dp1829
I8
I1
sI3
I2
sI7
I1
ssg338
(dp1830
I9
I1
sI4
I1
ssS'water'
p1831
(dp1832
I9
I1
sI3
I1
sI5
I1
ssg340
(dp1833
I8
I1
sI1
I1
sI2
I1
sI6
I1
sI7
I1
ssg1197
(dp1834
I0
I1
sI9
I1
sI5
I1
ssg115
(dp1835
I5
I1
ssS'chills'
p1836
(dp1837
I7
I1
ssS'colorado'
p1838
(dp1839
I8
I1
sI1
I1
sI2
I1
sI5
I1
sI6
I2
ssg647
(dp1840
I8
I1
sI1
I1
sI2
I1
sI5
I1
sI6
I2
ssg609
(dp1841
I8
I1
sI1
I1
sI2
I1
sI6
I1
ssS'spect'
p1842
(dp1843
I5
I1
ssg89
(dp1844
I2
I1
ssS'mite'
p1845
(dp1846
I9
I1
ssg139
(dp1847
I7
I1
ssg141
(dp1848
I0
I1
sI9
I1
ssS'basil'
p1849
(dp1850
I9
I1
ssg145
(dp1851
I3
I1
ssg147
(dp1852
I3
I1
ssg153
(dp1853
I5
I1
ssg7
(dp1854
I0
I1
ssg157
(dp1855
I0
I1
sI1
I1
sI2
I1
sI3
I1
sI4
I3
sI5
I3
sI6
I1
sI7
I2
sI8
I1
sI9
I1
ssg527
(dp1856
I3
I1
ssg161
(dp1857
I3
I1
ssg167
(dp1858
I0
I1
sI8
I1
ssg171
(dp1859
I2
I1
sI5
I1
sI6
I1
ssg67
(dp1860
I2
I1
sI4
I1
ssS'abdominal radiography'
p1861
(dp1862
I5
I1
ssS'chronic obstructive pulmonary disease'
p1863
(dp1864
I5
I1
ssg379
(dp1865
I4
I1
ssg125
(dp1866
I0
I1
ssg1237
(dp1867
I7
I1
ssS'pulmonary disease'
p1868
(dp1869
I5
I1
ssg185
(dp1870
I0
I1
sI5
I1
ssg187
(dp1871
I0
I1
sI1
I1
sI2
I2
sI3
I1
sI6
I2
sI7
I1
ssS'obstructive pulmonary disease'
p1872
(dp1873
I5
I1
ssS'throat'
p1874
(dp1875
I4
I3
ssg197
(dp1876
I8
I1
ssg553
(dp1877
I9
I1
sI3
I1
sI4
I1
sI5
I1
ssg278
(dp1878
I8
I1
ssg27
(dp1879
I0
I1
sI9
I1
sI4
I1
ssg392
(dp1880
I4
I1
ssg213
(dp1881
I4
I1
ssg217
(dp1882
I8
I1
ssg221
(dp1883
I0
I1
sI5
I1
ssS'plant'
p1884
(dp1885
I5
I1
ssg225
(dp1886
I1
I1
sI2
I2
sI3
I2
sI6
I1
sI7
I1
sI8
I1
ssg227
(dp1887
I9
I1
ssg239
(dp1888
I3
I1
ssg640
(dp1889
I2
I1
ssg243
(dp1890
I9
I2
sI5
I1
ssg247
(dp1891
I5
I2
ssS'transplant'
p1892
(dp1893
I5
I1
ssg417
(dp1894
I8
I1
sI5
I1
ssS'hypha'
p1895
(dp1896
I3
I1
sssS'5'
p1897
(dp1898
S'embolism'
p1899
(dp1900
I9
I2
ssg579
(dp1901
I1
I1
ssg265
(dp1902
I1
I1
ssg1284
(dp1903
I0
I1
sI2
I1
ssS'cold'
p1904
(dp1905
I7
I1
ssg270
(dp1906
I0
I1
ssg211
(dp1907
I1
I1
sI5
I1
sI9
I1
ssg437
(dp1908
I1
I1
ssS'pulmonary embolism'
p1909
(dp1910
I9
I2
ssg891
(dp1911
I9
I1
ssg31
(dp1912
I0
I1
sI3
I1
sI4
I1
sI5
I1
sI6
I1
sI8
I1
sI9
I1
ssg33
(dp1913
I2
I1
ssg451
(dp1914
I7
I1
ssS'hematology'
p1915
(dp1916
I4
I1
ssg37
(dp1917
I2
I1
ssg249
(dp1918
I1
I1
sI5
I1
ssg1299
(dp1919
I4
I2
ssg49
(dp1920
I8
I2
sI0
I2
sI5
I1
sI7
I1
ssS'acute coronary syndrome'
p1921
(dp1922
I2
I1
ssg918
(dp1923
I9
I1
sI4
I1
ssg302
(dp1924
I6
I1
ssg59
(dp1925
I8
I1
sI9
I1
sI2
I1
ssg1317
(dp1926
I9
I1
ssg225
(dp1927
I7
I1
ssS'japan'
p1928
(dp1929
I5
I1
ssg926
(dp1930
I1
I1
sI7
I1
ssg55
(dp1931
I8
I1
ssg81
(dp1932
I4
I1
ssg1538
(dp1933
I0
I1
ssg89
(dp1934
I5
I1
sI7
I1
ssg1184
(dp1935
I6
I1
ssg781
(dp1936
I0
I1
sI8
I2
ssg95
(dp1937
I1
I1
ssg628
(dp1938
I5
I1
ssg99
(dp1939
I2
I1
ssg338
(dp1940
I7
I1
ssg633
(dp1941
I6
I1
ssg113
(dp1942
I3
I1
ssS'blood test'
p1943
(dp1944
I1
I1
sI5
I1
ssg115
(dp1945
I0
I1
sI3
I1
sI4
I1
sI5
I1
sI6
I1
sI8
I1
sI9
I1
ssg640
(dp1946
I3
I1
ssS'sickle cell disease'
p1947
(dp1948
I4
I1
ssg503
(dp1949
I3
I1
ssg1209
(dp1950
I6
I1
ssS'test taking'
p1951
(dp1952
I7
I1
ssg609
(dp1953
I1
I1
ssg129
(dp1954
I2
I1
ssg654
(dp1955
I0
I1
sI1
I1
sI3
I1
sI8
I1
sI7
I1
ssS'headaches'
p1956
(dp1957
I1
I1
ssg1344
(dp1958
I1
I1
ssg139
(dp1959
I2
I1
ssS'weight loss'
p1960
(dp1961
I4
I1
ssg145
(dp1962
I1
I1
ssg147
(dp1963
I1
I1
ssS'type 2 diabetes mellitus'
p1964
(dp1965
I2
I1
ssg1593
(dp1966
I2
I1
ssg157
(dp1967
I0
I2
sI1
I1
sI2
I2
sI3
I1
sI4
I2
sI5
I1
sI6
I3
sI7
I1
sI8
I2
sI9
I2
ssg159
(dp1968
I3
I1
sI5
I1
sI6
I1
sI7
I1
ssg680
(dp1969
I0
I1
sI1
I1
sI3
I1
sI8
I1
sI7
I1
ssg161
(dp1970
I4
I1
ssg167
(dp1971
I5
I1
ssg829
(dp1972
I3
I1
ssg177
(dp1973
I0
I1
sI1
I2
sI3
I1
sI6
I2
sI7
I1
sI8
I1
ssS'chin'
p1974
(dp1975
I2
I1
ssg379
(dp1976
I9
I1
sI2
I1
sI6
I1
sI7
I1
ssg181
(dp1977
I9
I1
ssg185
(dp1978
I0
I1
sI2
I1
sI3
I1
sI4
I1
sI6
I1
sI7
I1
sI8
I1
ssg187
(dp1979
I8
I1
sI1
I1
sI3
I1
sI6
I2
sI7
I1
ssg189
(dp1980
I2
I1
ssS'signs and symptoms'
p1981
(dp1982
I2
I1
ssg197
(dp1983
I9
I1
sI3
I1
ssS'syndrome'
p1984
(dp1985
I2
I1
ssg1250
(dp1986
I6
I1
ssg1382
(dp1987
I1
I1
ssg27
(dp1988
I1
I1
sI2
I1
sI7
I1
ssS'nocturia'
p1989
(dp1990
I1
I1
ssg217
(dp1991
I9
I1
ssg1258
(dp1992
I8
I1
ssg227
(dp1993
I1
I1
sI5
I1
sI6
I2
sI9
I1
ssg229
(dp1994
I3
I1
ssg205
(dp1995
I1
I1
ssg233
(dp1996
I3
I1
sI4
I1
sI5
I1
sI6
I1
sI7
I1
ssg948
(dp1997
I7
I1
ssg235
(dp1998
I1
I1
sI5
I3
sI6
I1
ssg570
(dp1999
I3
I1
ssg239
(dp2000
I0
I1
sI3
I1
sI4
I1
sI5
I1
sI6
I1
sI7
I1
sI8
I1
ssg412
(dp2001
I0
I1
sI1
I1
sI2
I1
sI8
I1
sI9
I1
ssg247
(dp2002
I2
I1
sI4
I1
ssg415
(dp2003
I2
I1
ssg417
(dp2004
I0
I1
sI5
I1
ssg873
(dp2005
I0
I1
sI8
I2
sssS'4'
p2006
(dp2007
g1029
(dp2008
I1
I1
ssg9
(dp2009
I8
I1
sI1
I1
sI3
I1
sI6
I1
ssS'protein a'
p2010
(dp2011
I5
I1
ssS'protein c'
p2012
(dp2013
I3
I1
ssS'kawas'
p2014
(dp2015
I0
I3
sI1
I1
sI2
I2
sI3
I2
sI8
I1
sI9
I3
ssg433
(dp2016
I0
I1
sI9
I1
sI2
I1
sI3
I1
ssg586
(dp2017
I0
I1
sI9
I1
ssg270
(dp2018
I0
I1
ssS'character'
p2019
(dp2020
I1
I1
ssg29
(dp2021
I2
I1
ssS'transferase'
p2022
(dp2023
I1
I1
sI7
I1
ssS'c reactive protein'
p2024
(dp2025
I1
I1
sI3
I1
sI5
I1
sI7
I1
ssg213
(dp2026
I3
I1
ssS'hypoalbuminemia'
p2027
(dp2028
I2
I1
ssg1062
(dp2029
I7
I1
ssS'erythema multiforme'
p2030
(dp2031
I8
I2
ssg595
(dp2032
I1
I1
ssg447
(dp2033
I6
I1
ssS'hands'
p2034
(dp2035
I7
I1
ssg1043
(dp2036
I9
I1
ssS'd cell'
p2037
(dp2038
I0
I1
sI1
I1
sI2
I1
sI4
I1
sI5
I1
sI6
I1
sI7
I1
sI8
I2
sI9
I1
ssg49
(dp2039
I9
I1
sI4
I1
sI5
I1
sI7
I1
ssS'proteins'
p2040
(dp2041
I3
I1
ssg1227
(dp2042
I2
I1
ssg918
(dp2043
I3
I1
ssS'neutrophils'
p2044
(dp2045
I9
I1
ssg300
(dp2046
I0
I1
sI8
I1
sI2
I1
sI9
I1
ssS'blood vessel'
p2047
(dp2048
I0
I1
ssS'alanine'
p2049
(dp2050
I7
I1
ssS'platelets'
p2051
(dp2052
I1
I1
ssg1317
(dp2053
I3
I1
ssg67
(dp2054
I4
I1
sI5
I2
sI7
I1
ssg926
(dp2055
I9
I1
sI3
I1
sI7
I1
ssg930
(dp2056
I4
I1
ssg79
(dp2057
I3
I1
ssg81
(dp2058
I0
I1
sI1
I1
sI2
I1
sI4
I1
sI5
I1
sI6
I1
sI7
I1
sI8
I2
sI9
I1
ssS'conjunctivitis'
p2059
(dp2060
I2
I1
sI4
I1
sI7
I1
ssS'platelet'
p2061
(dp2062
I1
I1
ssg933
(dp2063
I4
I1
ssS'd alanine aminotransferase'
p2064
(dp2065
I7
I1
ssg89
(dp2066
I4
I1
ssS'toes'
p2067
(dp2068
I4
I1
ssg309
(dp2069
I1
I1
ssg99
(dp2070
I2
I1
sI3
I1
sI6
I1
ssS'blood cell'
p2071
(dp2072
I0
I1
sI1
I1
sI2
I1
sI4
I1
sI5
I1
sI6
I1
sI7
I1
sI8
I2
sI9
I1
ssg943
(dp2073
I8
I1
ssg103
(dp2074
I8
I1
sI1
I1
sI6
I1
ssS'neutrophil'
p2075
(dp2076
I9
I1
ssg1943
(dp2077
I8
I1
ssS'd cells'
p2078
(dp2079
I8
I1
ssS'conjunctiva'
p2080
(dp2081
I8
I1
ssg139
(dp2082
I0
I1
sI9
I1
sI2
I1
sI3
I1
sI5
I2
ssS'tongue'
p2083
(dp2084
I3
I1
sI4
I1
sI7
I1
ssg640
(dp2085
I7
I1
ssS'comment'
p2086
(dp2087
I6
I1
ssS'filamin'
p2088
(dp2089
I3
I1
ssg810
(dp2090
I1
I1
ssS'poa'
p2091
(dp2092
I2
I1
ssS'kawa'
p2093
(dp2094
I0
I3
sI1
I1
sI2
I2
sI3
I2
sI8
I1
sI9
I3
ssS'transfer'
p2095
(dp2096
I1
I1
sI7
I1
ssS'alanine aminotransferase'
p2097
(dp2098
I7
I1
ssg1450
(dp2099
I3
I1
ssS'blood cells'
p2100
(dp2101
I8
I1
ssS'blood cell count'
p2102
(dp2103
I0
I1
sI1
I1
sI2
I1
sI4
I1
sI5
I1
sI6
I1
sI7
I1
sI8
I1
sI9
I1
ssS'toe'
p2104
(dp2105
I4
I1
ssS'blood vessels'
p2106
(dp2107
I0
I1
ssg965
(dp2108
I8
I2
ssS'kawasaki disease'
p2109
(dp2110
I0
I3
sI9
I3
sI2
I2
sI3
I2
sI1
I1
ssg365
(dp2111
I0
I1
sI9
I1
sI2
I1
sI3
I1
ssS'injection'
p2112
(dp2113
I8
I1
ssg157
(dp2114
I0
I1
sI2
I1
sI4
I2
sI5
I2
sI7
I1
sI8
I1
sI9
I1
ssg159
(dp2115
I6
I1
ssS'cells'
p2116
(dp2117
I8
I1
ssg167
(dp2118
I1
I2
sI2
I1
sI5
I1
ssg829
(dp2119
I3
I1
ssg177
(dp2120
I0
I3
sI1
I1
sI2
I2
sI3
I2
sI4
I2
sI5
I2
sI6
I2
sI7
I2
sI8
I2
sI9
I2
ssg1106
(dp2121
I1
I1
ssS'h 7'
p2122
(dp2123
I2
I1
ssS'white blood cell'
p2124
(dp2125
I0
I1
sI1
I1
sI2
I1
sI4
I1
sI5
I1
sI6
I1
sI7
I1
sI8
I2
sI9
I1
ssg379
(dp2126
I2
I1
ssg125
(dp2127
I0
I1
sI9
I1
ssS'archin'
p2128
(dp2129
I5
I2
ssg185
(dp2130
I1
I1
ssg187
(dp2131
I0
I1
sI9
I1
sI3
I1
sI6
I1
sI7
I2
ssS'cell count'
p2132
(dp2133
I0
I1
sI1
I1
sI2
I1
sI4
I1
sI5
I1
sI6
I1
sI7
I1
sI8
I1
sI9
I1
ssg1974
(dp2134
I5
I2
ssg698
(dp2135
I9
I1
sI5
I1
sI7
I1
ssg197
(dp2136
I3
I1
ssg553
(dp2137
I2
I1
ssg27
(dp2138
I9
I1
sI6
I1
sI1
I1
ssS'vitis'
p2139
(dp2140
I2
I1
sI4
I1
sI7
I1
ssg221
(dp2141
I8
I1
sI1
I1
sI3
I1
ssg223
(dp2142
I1
I1
sI7
I1
ssg225
(dp2143
I0
I1
sI1
I1
sI2
I1
sI4
I2
sI7
I1
sI8
I1
ssS'white blood cell count'
p2144
(dp2145
I0
I1
sI1
I1
sI2
I1
sI4
I1
sI5
I1
sI6
I1
sI7
I1
sI8
I1
sI9
I1
ssg403
(dp2146
I7
I1
ssg233
(dp2147
I6
I1
ssg235
(dp2148
I0
I2
sI1
I1
sI2
I1
sI4
I1
sI5
I1
sI6
I1
sI7
I1
sI8
I3
sI9
I1
ssS'chara'
p2149
(dp2150
I1
I1
ssg570
(dp2151
I1
I2
ssS'tung'
p2152
(dp2153
I6
I1
ssg239
(dp2154
I4
I1
sI6
I1
sI7
I1
ssS'white blood cells'
p2155
(dp2156
I8
I1
ssg243
(dp2157
I9
I1
ssg1019
(dp2158
I6
I2
ssg247
(dp2159
I0
I4
sI9
I3
sI2
I2
sI3
I2
sI1
I2
ssg417
(dp2160
I5
I1
ssg253
(dp2161
I3
I1
sssS'7'
p2162
(dp2163
S'judgments'
p2164
(dp2165
I8
I1
ssS'sleep'
p2166
(dp2167
I0
I1
sI1
I1
sI2
I1
sI4
I2
ssg1284
(dp2168
I0
I1
ssg1037
(dp2169
I3
I1
ssS'suicide'
p2170
(dp2171
I1
I1
sI3
I1
ssg270
(dp2172
I0
I1
ssS'pharmacotherapy'
p2173
(dp2174
I7
I1
ssg278
(dp2175
I7
I1
ssg31
(dp2176
I0
I1
sI1
I1
sI2
I1
sI3
I2
sI5
I1
sI6
I1
ssg33
(dp2177
I3
I1
ssS'fluoxetine'
p2178
(dp2179
I5
I1
ssg451
(dp2180
I4
I1
ssg41
(dp2181
I7
I1
ssg43
(dp2182
I2
I1
ssS'association'
p2183
(dp2184
I5
I1
ssS'ponds'
p2185
(dp2186
I3
I1
ssg49
(dp2187
I0
I1
ssg1502
(dp2188
I8
I2
ssS'therapies'
p2189
(dp2190
I6
I1
ssg300
(dp2191
I9
I1
sI2
I1
sI4
I2
ssg302
(dp2192
I1
I1
ssg59
(dp2193
I2
I1
sI3
I1
ssS'mood disorder'
p2194
(dp2195
I8
I1
ssS'schizophrenia'
p2196
(dp2197
I3
I1
sI6
I1
ssg1842
(dp2198
I4
I1
ssg73
(dp2199
I7
I1
ssS'depression'
p2200
(dp2201
I8
I1
sI4
I1
ssg313
(dp2202
I2
I1
ssg317
(dp2203
I3
I1
sI5
I1
ssg321
(dp2204
I0
I1
sI2
I1
sI3
I1
sI5
I1
sI7
I2
sI8
I2
sI9
I1
ssg79
(dp2205
I9
I1
ssS'fluoxetin'
p2206
(dp2207
I5
I1
ssg1538
(dp2208
I0
I1
ssS'dde'
p2209
(dp2210
I7
I1
ssg918
(dp2211
I1
I1
ssg95
(dp2212
I6
I2
sI7
I1
ssg99
(dp2213
I8
I2
sI1
I1
sI3
I1
sI4
I1
sI7
I1
ssg115
(dp2214
I0
I1
sI1
I1
sI2
I1
sI3
I2
sI5
I2
sI6
I1
sI7
I1
ssS'violence'
p2215
(dp2216
I5
I1
ssg803
(dp2217
I9
I1
ssg573
(dp2218
I9
I1
ssg2086
(dp2219
I1
I1
ssS'sleep disorders'
p2220
(dp2221
I4
I1
ssS'suicidal ideation'
p2222
(dp2223
I0
I1
sI2
I1
sI4
I1
sI5
I1
sI7
I1
ssg503
(dp2224
I3
I1
ssg810
(dp2225
I2
I1
ssg129
(dp2226
I3
I1
ssg139
(dp2227
I8
I1
sI3
I2
sI4
I1
sI6
I1
ssS'sleep disorder'
p2228
(dp2229
I4
I1
ssS'mood disorders'
p2230
(dp2231
I8
I1
ssg671
(dp2232
I9
I1
sI5
I1
sI7
I1
ssg365
(dp2233
I8
I1
ssg157
(dp2234
I0
I2
sI1
I2
sI2
I2
sI3
I2
sI4
I2
sI5
I1
sI6
I3
sI8
I1
sI9
I1
ssg527
(dp2235
I4
I1
ssg161
(dp2236
I1
I1
ssg369
(dp2237
I3
I1
sI5
I1
sI6
I1
sI7
I1
ssg167
(dp2238
I4
I1
ssg169
(dp2239
I9
I1
ssg829
(dp2240
I8
I1
ssS'anxiety disorder'
p2241
(dp2242
I6
I1
ssg77
(dp2243
I7
I1
ssg177
(dp2244
I9
I1
sI7
I1
ssS'guilt'
p2245
(dp2246
I4
I1
ssS'behavior'
p2247
(dp2248
I5
I1
ssg2122
(dp2249
I4
I1
ssg379
(dp2250
I1
I1
sI5
I1
ssg691
(dp2251
I9
I1
sI5
I1
sI7
I1
ssg185
(dp2252
I2
I1
ssg187
(dp2253
I1
I1
sI4
I1
ssg1411
(dp2254
I4
I1
ssS'pond'
p2255
(dp2256
I3
I1
ssg195
(dp2257
I9
I1
ssg197
(dp2258
I0
I3
sI1
I1
sI2
I3
sI3
I2
sI4
I2
sI5
I4
sI6
I2
sI7
I3
sI9
I1
ssg27
(dp2259
I2
I1
sI5
I1
ssg217
(dp2260
I5
I1
sI7
I1
ssg396
(dp2261
I0
I1
sI2
I1
sI7
I1
ssg221
(dp2262
I2
I1
ssg223
(dp2263
I8
I1
sI7
I1
ssg205
(dp2264
I3
I1
sI4
I1
ssg570
(dp2265
I3
I1
ssS'judgment'
p2266
(dp2267
I8
I1
ssg239
(dp2268
I1
I1
ssg247
(dp2269
I6
I1
ssg417
(dp2270
I0
I1
sI2
I1
sI3
I1
sI6
I1
ssg251
(dp2271
I8
I1
ssS'psychiatry'
p2272
(dp2273
I3
I1
sI4
I1
ssg905
(dp2274
I2
I1
sssS'6'
p2275
(dp2276
g7
(dp2277
I1
I1
ssg9
(dp2278
I9
I2
ssg265
(dp2279
I7
I1
ssg15
(dp2280
I0
I3
ssg884
(dp2281
I0
I2
sI2
I3
sI3
I2
sI5
I1
sI7
I1
ssg1284
(dp2282
I3
I1
ssg270
(dp2283
I3
I1
ssg211
(dp2284
I1
I1
sI9
I2
ssg29
(dp2285
I1
I1
sI5
I1
ssg1543
(dp2286
I7
I2
ssS'speech'
p2287
(dp2288
I9
I1
ssg31
(dp2289
I1
I1
sI3
I1
sI7
I1
ssg447
(dp2290
I0
I1
ssS'hete'
p2291
(dp2292
I6
I1
ssg249
(dp2293
I9
I1
ssg1043
(dp2294
I2
I1
ssS'molar'
p2295
(dp2296
I9
I1
ssS'popliteal artery'
p2297
(dp2298
I7
I1
ssg913
(dp2299
I5
I1
ssS'echocardiography'
p2300
(dp2301
I6
I1
ssg49
(dp2302
I3
I1
ssg55
(dp2303
I2
I1
sI6
I1
ssS'blood sugar'
p2304
(dp2305
I0
I1
ssg918
(dp2306
I1
I1
sI5
I1
sI6
I2
ssg300
(dp2307
I5
I2
sI6
I1
ssS'necrobiosis lipoidica'
p2308
(dp2309
I2
I1
ssg2047
(dp2310
I0
I1
ssg59
(dp2311
I7
I2
ssg1806
(dp2312
I2
I1
ssg466
(dp2313
I7
I1
ssS'ulcers'
p2314
(dp2315
I0
I2
ssg1317
(dp2316
I1
I1
ssg167
(dp2317
I1
I1
sI2
I1
sI7
I1
ssS'dermatology'
p2318
(dp2319
I5
I1
sI6
I1
ssg69
(dp2320
I1
I1
ssg71
(dp2321
I8
I1
ssg79
(dp2322
I8
I2
sI5
I1
ssg1538
(dp2323
I3
I1
ssg331
(dp2324
I9
I1
ssg1823
(dp2325
I2
I1
ssg95
(dp2326
I8
I1
sI1
I1
ssg628
(dp2327
I0
I2
sI2
I1
sI3
I1
sI4
I1
sI6
I1
sI7
I1
sI8
I1
ssg97
(dp2328
I1
I1
ssS'cardiac catheterization'
p2329
(dp2330
I6
I1
ssg338
(dp2331
I9
I1
ssg1831
(dp2332
I9
I1
ssg633
(dp2333
I6
I1
ssS'catheterization'
p2334
(dp2335
I6
I1
ssS'blister'
p2336
(dp2337
I0
I1
ssg623
(dp2338
I2
I1
ssS'language'
p2339
(dp2340
I9
I1
ssg115
(dp2341
I1
I1
sI3
I1
sI7
I1
ssg119
(dp2342
I1
I1
ssg1136
(dp2343
I0
I1
sI8
I1
sI5
I1
sI6
I1
ssg1836
(dp2344
I4
I1
ssg573
(dp2345
I0
I1
sI6
I1
ssg123
(dp2346
I1
I1
ssg807
(dp2347
I9
I1
ssg812
(dp2348
I8
I1
sI4
I1
sI6
I1
ssg1951
(dp2349
I9
I1
ssS'constipation'
p2350
(dp2351
I7
I1
ssg135
(dp2352
I5
I1
sI6
I1
ssg139
(dp2353
I4
I1
ssg817
(dp2354
I0
I1
sI6
I1
ssS'polyneuropathy'
p2355
(dp2356
I8
I1
ssS'eyes'
p2357
(dp2358
I5
I1
sI6
I1
ssS'osmolarity'
p2359
(dp2360
I9
I1
ssS'cardiac catheter'
p2361
(dp2362
I6
I1
ssg2106
(dp2363
I0
I1
ssg965
(dp2364
I1
I1
sI2
I1
ssg155
(dp2365
I1
I1
sI2
I1
ssg157
(dp2366
I1
I1
sI2
I2
sI3
I2
sI4
I1
sI5
I4
sI6
I3
sI7
I2
sI8
I2
sI9
I1
ssg159
(dp2367
I7
I1
ssg161
(dp2368
I8
I1
ssg825
(dp2369
I8
I1
sI4
I1
sI6
I1
ssg187
(dp2370
I7
I1
ssg171
(dp2371
I2
I1
sI6
I1
ssg177
(dp2372
I0
I3
sI1
I1
sI3
I1
sI7
I3
ssg179
(dp2373
I1
I1
ssg379
(dp2374
I9
I1
sI6
I1
ssg125
(dp2375
I1
I1
sI2
I2
sI6
I1
ssg185
(dp2376
I6
I2
sI7
I1
ssS'femoral artery'
p2377
(dp2378
I7
I1
ssg1227
(dp2379
I6
I1
ssg1874
(dp2380
I9
I1
sI5
I1
ssg386
(dp2381
I6
I1
ssS'sits'
p2382
(dp2383
I8
I1
ssg197
(dp2384
I8
I1
sI0
I1
sI2
I1
sI1
I1
ssS'rape'
p2385
(dp2386
I8
I1
ssg1250
(dp2387
I6
I1
ssg27
(dp2388
I9
I2
sI2
I1
ssg213
(dp2389
I2
I1
ssg217
(dp2390
I0
I1
ssg221
(dp2391
I9
I1
ssg223
(dp2392
I9
I1
ssg225
(dp2393
I9
I1
sI2
I1
sI4
I1
ssg227
(dp2394
I3
I3
sI4
I1
sI5
I1
sI6
I1
sI7
I1
sI9
I1
ssg233
(dp2395
I7
I1
ssg235
(dp2396
I0
I2
sI6
I1
ssS'skin ulcers'
p2397
(dp2398
I0
I2
ssS'catheter'
p2399
(dp2400
I6
I1
ssg239
(dp2401
I8
I1
sI1
I1
sI7
I1
ssS'necrobiosis'
p2402
(dp2403
I2
I1
ssS'skin ulcer'
p2404
(dp2405
I0
I2
ssS'artery popliteal'
p2406
(dp2407
I7
I1
ssS'ego'
p2408
(dp2409
I2
I1
ssg417
(dp2410
I0
I1
sI8
I1
sI3
I1
sI5
I1
sssS'9'
p2411
(dp2412
g884
(dp2413
I0
I1
sI1
I1
sI2
I3
sI3
I3
sI4
I1
sI5
I1
sI6
I1
sI9
I3
ssg1284
(dp2414
I7
I1
ssg270
(dp2415
I7
I1
ssg211
(dp2416
I1
I1
ssg29
(dp2417
I1
I2
ssS'shoulder pain'
p2418
(dp2419
I7
I1
ssg31
(dp2420
I8
I2
sI1
I1
sI9
I1
sI6
I1
sI7
I2
ssg33
(dp2421
I9
I1
ssg451
(dp2422
I9
I1
ssg899
(dp2423
I0
I1
sI3
I1
ssg1301
(dp2424
I6
I1
ssg2034
(dp2425
I5
I1
ssS'foot'
p2426
(dp2427
I1
I1
ssg604
(dp2428
I7
I1
ssg49
(dp2429
I7
I1
ssg1746
(dp2430
I2
I2
sI3
I1
sI6
I1
ssg55
(dp2431
I1
I1
sI4
I1
sI7
I1
ssg1502
(dp2432
I5
I1
ssg918
(dp2433
I6
I1
ssS'lipoma'
p2434
(dp2435
I2
I1
ssg1317
(dp2436
I0
I1
sI1
I1
ssS'growth'
p2437
(dp2438
I4
I2
ssg2318
(dp2439
I6
I1
ssS'skin color'
p2440
(dp2441
I9
I1
ssS'nevi'
p2442
(dp2443
I4
I1
ssg315
(dp2444
I0
I1
ssg628
(dp2445
I1
I1
ssg1562
(dp2446
I4
I1
ssg177
(dp2447
I0
I2
sI2
I1
sI3
I2
sI4
I2
sI6
I1
sI7
I1
sI9
I2
ssg87
(dp2448
I1
I1
ssg95
(dp2449
I1
I1
sI3
I1
ssS'nature'
p2450
(dp2451
I3
I1
ssg99
(dp2452
I0
I1
sI2
I2
sI5
I1
ssg115
(dp2453
I8
I2
sI1
I1
sI9
I1
sI6
I1
sI7
I2
ssS'uncertainty'
p2454
(dp2455
I3
I1
ssS'sebaceous gland'
p2456
(dp2457
I2
I1
ssg1751
(dp2458
I2
I2
sI3
I2
sI6
I1
ssS'nevus'
p2459
(dp2460
I4
I1
sI5
I1
ssg573
(dp2461
I5
I1
ssg644
(dp2462
I2
I1
ssg647
(dp2463
I0
I2
sI1
I1
sI4
I1
sI5
I3
sI6
I1
sI7
I1
sI9
I1
ssg503
(dp2464
I7
I1
ssS'cosmetic'
p2465
(dp2466
I8
I1
ssS'intradermal nevi'
p2467
(dp2468
I4
I1
ssS'lipomas'
p2469
(dp2470
I2
I1
ssg197
(dp2471
I4
I1
sI6
I2
ssg817
(dp2472
I1
I1
ssS'emergency room'
p2473
(dp2474
I9
I1
ssg147
(dp2475
I9
I1
sI3
I1
ssS'sebaceous glands'
p2476
(dp2477
I2
I1
ssg153
(dp2478
I2
I1
ssg157
(dp2479
I0
I2
sI1
I1
sI5
I1
sI7
I4
sI8
I2
sI9
I1
ssg527
(dp2480
I0
I1
sI2
I2
ssS'melanocytic nevus'
p2481
(dp2482
I5
I1
ssg161
(dp2483
I8
I1
ssS'hyperplasia'
p2484
(dp2485
I4
I1
ssS'lentigines'
p2486
(dp2487
I4
I1
ssg167
(dp2488
I9
I1
sI6
I1
ssg171
(dp2489
I3
I1
ssS'pregnant woman'
p2490
(dp2491
I6
I1
ssg1760
(dp2492
I0
I1
ssS'arum'
p2493
(dp2494
I6
I1
ssg379
(dp2495
I1
I1
sI2
I1
ssg125
(dp2496
I0
I3
sI1
I1
sI2
I2
sI3
I1
sI4
I1
sI5
I1
sI6
I1
sI7
I1
sI8
I1
ssS'gingiva'
p2497
(dp2498
I6
I1
ssg185
(dp2499
I0
I1
sI6
I1
ssg1754
(dp2500
I0
I1
sI2
I1
ssg1411
(dp2501
I5
I1
sI6
I1
ssg1245
(dp2502
I9
I3
ssg386
(dp2503
I0
I1
sI2
I1
sI5
I1
ssS'clinical medicine'
p2504
(dp2505
I1
I1
ssS'eels'
p2506
(dp2507
I5
I1
ssS'mole'
p2508
(dp2509
I5
I1
ssg27
(dp2510
I6
I1
ssg213
(dp2511
I2
I1
ssS'igm'
p2512
(dp2513
I5
I1
ssg221
(dp2514
I8
I1
sI9
I1
sI5
I1
ssg223
(dp2515
I2
I1
sI4
I1
sI5
I1
ssg227
(dp2516
I7
I1
ssg403
(dp2517
I5
I1
sI7
I1
ssg233
(dp2518
I1
I1
ssg570
(dp2519
I2
I1
sI5
I1
sI7
I1
ssg239
(dp2520
I8
I1
ssg410
(dp2521
I0
I1
sI1
I1
sI3
I1
sI4
I1
sI7
I2
sI8
I1
sI9
I1
ssg243
(dp2522
I3
I1
ssg1470
(dp2523
I9
I1
sI4
I1
sI5
I1
ssg2408
(dp2524
I3
I1
ssg417
(dp2525
I2
I1
sI3
I1
sI4
I1
sI5
I1
sI6
I1
sI7
I1
sssS'8'
p2526
(dp2527
g25
(dp2528
I9
I1
ssS'brain'
p2529
(dp2530
I0
I1
sI1
I1
sI2
I1
sI4
I1
sI6
I1
sI7
I1
sI8
I2
sI9
I1
ssS'prpc proteins'
p2531
(dp2532
I7
I1
ssg1282
(dp2533
I6
I1
ssg1543
(dp2534
I9
I1
ssS'anterior cerebral artery'
p2535
(dp2536
I9
I1
ssg27
(dp2537
I2
I1
ssS'maic'
p2538
(dp2539
I4
I1
ssS'ganglia'
p2540
(dp2541
I5
I1
ssS'cerebral cortex'
p2542
(dp2543
I5
I1
ssg513
(dp2544
I8
I1
ssS'cuba'
p2545
(dp2546
I7
I1
ssg451
(dp2547
I3
I1
ssg899
(dp2548
I0
I1
sI3
I1
sI4
I1
sI5
I1
sI6
I1
ssS'atrophy'
p2549
(dp2550
I0
I1
sI1
I1
sI2
I1
sI8
I1
ssg1043
(dp2551
I7
I1
ssg2183
(dp2552
I5
I1
sI6
I1
ssg49
(dp2553
I2
I1
ssg2040
(dp2554
I7
I1
ssg55
(dp2555
I2
I1
ssS'frontal cortex'
p2556
(dp2557
I8
I1
ssS'white matter'
p2558
(dp2559
I2
I1
sI5
I1
ssg300
(dp2560
I2
I1
sI7
I1
ssS'jamaica'
p2561
(dp2562
I4
I1
ssg302
(dp2563
I2
I2
ssg59
(dp2564
I1
I1
sI2
I1
sI9
I1
ssS'sensation'
p2565
(dp2566
I3
I1
ssg613
(dp2567
I2
I1
ssS'cerebral artery'
p2568
(dp2569
I9
I1
ssg67
(dp2570
I3
I1
ssg73
(dp2571
I1
I2
ssg315
(dp2572
I6
I1
ssS'central nervous system'
p2573
(dp2574
I8
I2
sI7
I1
ssg37
(dp2575
I3
I1
sI4
I1
ssS'movement'
p2576
(dp2577
I0
I1
sI1
I1
sI7
I1
ssg95
(dp2578
I9
I1
sI2
I1
ssg628
(dp2579
I0
I1
sI1
I1
sI3
I1
ssS'confusion'
p2580
(dp2581
I1
I1
ssg99
(dp2582
I0
I1
sI1
I1
sI2
I1
sI9
I1
sI7
I1
ssg943
(dp2583
I8
I2
sI7
I1
ssS'dysarthria'
p2584
(dp2585
I1
I1
ssS'astrocyte'
p2586
(dp2587
I6
I1
ssg573
(dp2588
I8
I1
sI1
I1
ssg747
(dp2589
I8
I2
ssS'liver disease'
p2590
(dp2591
I9
I1
ssS'ataxia'
p2592
(dp2593
I8
I1
ssS'il 1'
p2594
(dp2595
I6
I1
ssS'seizures'
p2596
(dp2597
I8
I2
ssS'gray matter'
p2598
(dp2599
I9
I1
sI3
I1
sI4
I1
sI7
I1
ssS'temperature'
p2600
(dp2601
I3
I1
ssS'toxoplasmosis'
p2602
(dp2603
I4
I1
ssS'amnesia'
p2604
(dp2605
I1
I1
ssS'memory'
p2606
(dp2607
I0
I1
sI1
I1
ssg817
(dp2608
I3
I1
ssS'reflex'
p2609
(dp2610
I3
I1
ssS'glia'
p2611
(dp2612
I5
I1
ssS'brains'
p2613
(dp2614
I2
I1
ssS'alzheimer disease'
p2615
(dp2616
I9
I1
ssg153
(dp2617
I9
I1
ssg157
(dp2618
I0
I1
sI1
I2
sI2
I1
sI3
I2
sI4
I2
sI5
I1
sI6
I1
sI7
I1
sI8
I1
sI9
I1
ssg531
(dp2619
I6
I1
ssg167
(dp2620
I8
I1
sI4
I1
sI5
I1
ssg171
(dp2621
I2
I1
ssg77
(dp2622
I9
I1
sI2
I1
ssg177
(dp2623
I0
I1
sI1
I1
sI2
I3
sI4
I1
sI5
I2
sI6
I2
sI7
I1
sI9
I1
ssS'motor cortex'
p2624
(dp2625
I9
I1
ssS'abstracts'
p2626
(dp2627
I5
I1
sI6
I1
ssg125
(dp2628
I9
I1
sI4
I1
ssS'cytoplasm'
p2629
(dp2630
I9
I1
ssS'tax'
p2631
(dp2632
I8
I1
ssS'astrocytes'
p2633
(dp2634
I6
I1
ssg841
(dp2635
I9
I1
ssg185
(dp2636
I9
I1
ssg187
(dp2637
I3
I1
ssg189
(dp2638
I3
I1
sI4
I1
ssg1245
(dp2639
I9
I1
ssS'dementia'
p2640
(dp2641
I2
I1
ssg197
(dp2642
I9
I1
sI5
I1
ssS'movements'
p2643
(dp2644
I0
I1
sI7
I1
ssg199
(dp2645
I8
I1
sI1
I1
ssS'rains'
p2646
(dp2647
I2
I1
ssg211
(dp2648
I3
I1
ssg213
(dp2649
I5
I1
ssS'nervous system'
p2650
(dp2651
I8
I2
sI7
I1
ssS'basal ganglia'
p2652
(dp2653
I5
I1
ssg221
(dp2654
I0
I2
sI2
I2
sI3
I1
sI4
I1
sI5
I2
sI6
I1
sI8
I1
ssg227
(dp2655
I3
I1
ssg205
(dp2656
I2
I1
sI5
I1
ssg567
(dp2657
I0
I1
sI1
I1
sI2
I1
sI4
I1
sI6
I1
sI7
I1
sI8
I2
sI9
I1
ssg235
(dp2658
I9
I1
ssg570
(dp2659
I5
I1
sI6
I1
ssg247
(dp2660
I8
I1
sI9
I2
sI2
I2
sI7
I2
ssg417
(dp2661
I2
I3
sI6
I2
ssg251
(dp2662
I4
I1
ssg421
(dp2663
I6
I1
ssg253
(dp2664
I1
I1
sssS'11'
p2665
(dp2666
g3
(dp2667
I2
I1
ssg25
(dp2668
I2
I2
ssg155
(dp2669
I2
I1
sI5
I2
ssg15
(dp2670
I0
I1
ssg733
(dp2671
I8
I1
ssS'asthma'
p2672
(dp2673
I6
I1
ssS'axillary veins'
p2674
(dp2675
I2
I1
ssg85
(dp2676
I9
I1
sI2
I1
sI3
I1
sI5
I1
sI7
I1
ssS'plasma'
p2677
(dp2678
I2
I1
ssS'lymph node'
p2679
(dp2680
I5
I1
ssg31
(dp2681
I1
I1
sI2
I1
sI3
I1
sI5
I1
sI7
I1
sI8
I2
sI9
I2
ssg33
(dp2682
I0
I1
ssg249
(dp2683
I3
I1
sI5
I1
ssg1299
(dp2684
I2
I1
ssg2426
(dp2685
I8
I1
ssS'lymphoma'
p2686
(dp2687
I5
I1
ssg2132
(dp2688
I9
I1
ssg2037
(dp2689
I9
I1
ssg49
(dp2690
I1
I1
sI9
I1
ssg55
(dp2691
I0
I1
sI1
I1
sI8
I1
sI9
I1
ssS'veins'
p2692
(dp2693
I2
I1
ssS'registry'
p2694
(dp2695
I6
I1
ssg300
(dp2696
I8
I1
ssg302
(dp2697
I6
I1
ssg59
(dp2698
I1
I1
ssg2350
(dp2699
I1
I1
ssg2565
(dp2700
I7
I1
ssg65
(dp2701
I0
I1
ssg67
(dp2702
I8
I2
ssg197
(dp2703
I8
I1
sI2
I1
ssg69
(dp2704
I2
I1
ssg73
(dp2705
I0
I2
sI2
I1
sI3
I1
sI4
I1
sI5
I1
sI6
I1
sI7
I1
sI8
I1
sI9
I2
ssS'ump'
p2706
(dp2707
I8
I1
ssg319
(dp2708
I6
I1
ssg81
(dp2709
I9
I1
sI3
I2
sI5
I1
ssg324
(dp2710
I1
I1
ssg933
(dp2711
I0
I1
ssg37
(dp2712
I1
I1
sI2
I1
sI9
I1
ssg623
(dp2713
I3
I1
sI4
I1
sI5
I1
ssg2576
(dp2714
I7
I1
ssg93
(dp2715
I9
I1
ssg95
(dp2716
I6
I2
ssg628
(dp2717
I3
I1
sI5
I1
sI6
I1
ssg97
(dp2718
I2
I1
ssg99
(dp2719
I7
I1
ssg2071
(dp2720
I9
I1
ssg633
(dp2721
I6
I1
ssg103
(dp2722
I0
I1
ssg635
(dp2723
I1
I1
ssS'tremor'
p2724
(dp2725
I7
I1
ssg107
(dp2726
I0
I1
ssg115
(dp2727
I1
I1
sI2
I1
sI3
I1
sI5
I1
sI7
I1
sI8
I2
sI9
I2
ssg119
(dp2728
I2
I1
ssg2124
(dp2729
I9
I1
ssg495
(dp2730
I8
I1
ssg1730
(dp2731
I8
I1
ssg1836
(dp2732
I2
I1
ssg211
(dp2733
I3
I1
sI5
I1
ssg644
(dp2734
I4
I1
ssg125
(dp2735
I4
I1
ssg503
(dp2736
I9
I1
ssg133
(dp2737
I0
I1
ssg656
(dp2738
I8
I1
ssg135
(dp2739
I7
I1
ssg2600
(dp2740
I0
I1
ssS'lymph nodes'
p2741
(dp2742
I5
I1
ssg1712
(dp2743
I7
I1
ssg139
(dp2744
I8
I1
sI2
I1
sI4
I1
ssS'vein'
p2745
(dp2746
I2
I1
ssg2102
(dp2747
I9
I1
ssg2473
(dp2748
I0
I1
ssg145
(dp2749
I7
I1
ssg147
(dp2750
I7
I1
ssg1091
(dp2751
I4
I1
ssg151
(dp2752
I0
I1
ssS'malignant lymphoma'
p2753
(dp2754
I5
I1
ssg365
(dp2755
I4
I1
ssg157
(dp2756
I0
I1
sI1
I3
sI2
I1
sI3
I2
sI4
I2
sI5
I2
sI6
I3
sI7
I2
sI8
I3
sI9
I2
ssg159
(dp2757
I4
I1
ssg163
(dp2758
I9
I1
ssg1615
(dp2759
I7
I1
ssg167
(dp2760
I1
I2
sI2
I1
sI3
I1
ssg829
(dp2761
I6
I1
ssg77
(dp2762
I6
I1
ssg177
(dp2763
I1
I1
sI2
I1
sI3
I1
sI5
I1
sI6
I1
sI9
I1
ssS'magnesium'
p2764
(dp2765
I1
I1
ssg1760
(dp2766
I3
I1
sI5
I1
ssg179
(dp2767
I2
I1
ssg123
(dp2768
I2
I1
ssS'axillary vein'
p2769
(dp2770
I2
I1
ssg379
(dp2771
I8
I2
sI9
I1
sI2
I1
sI4
I1
ssg181
(dp2772
I1
I1
ssS'breast feeding'
p2773
(dp2774
I2
I1
ssg185
(dp2775
I8
I1
sI9
I1
sI3
I2
sI4
I1
sI5
I2
ssg187
(dp2776
I0
I1
sI1
I2
ssg1754
(dp2777
I4
I1
ssg191
(dp2778
I1
I1
ssg2255
(dp2779
I0
I1
ssS'ship'
p2780
(dp2781
I7
I1
ssg545
(dp2782
I8
I1
ssS'breathing'
p2783
(dp2784
I6
I1
ssg449
(dp2785
I8
I1
ssg1250
(dp2786
I6
I1
ssg207
(dp2787
I1
I1
ssg27
(dp2788
I1
I1
sI4
I1
ssg223
(dp2789
I0
I1
ssg225
(dp2790
I2
I1
ssg227
(dp2791
I3
I1
sI5
I1
sI6
I1
sI7
I1
sI8
I1
sI9
I1
ssg1261
(dp2792
I2
I1
ssg83
(dp2793
I0
I1
ssg2144
(dp2794
I9
I1
ssg205
(dp2795
I4
I1
ssg233
(dp2796
I4
I1
ssg1011
(dp2797
I8
I1
ssg235
(dp2798
I0
I1
sI9
I1
sI6
I1
ssg237
(dp2799
I0
I1
ssg570
(dp2800
I9
I1
ssg239
(dp2801
I0
I1
sI2
I1
sI3
I1
sI4
I1
sI5
I1
sI8
I1
ssS'infections'
p2802
(dp2803
I4
I1
ssg247
(dp2804
I0
I1
ssS'ambulance'
p2805
(dp2806
I0
I1
sssS'10'
p2807
(dp2808
g265
(dp2809
I6
I1
ssg2426
(dp2810
I8
I1
sI1
I1
sI7
I1
ssg11
(dp2811
I8
I1
ssS'shoe'
p2812
(dp2813
I4
I1
ssg15
(dp2814
I4
I1
ssg1904
(dp2815
I5
I1
ssS'limbs'
p2816
(dp2817
I8
I1
ssS'arteries'
p2818
(dp2819
I0
I1
sI4
I1
ssS'syncope'
p2820
(dp2821
I7
I1
ssS'paris'
p2822
(dp2823
I6
I1
ssg278
(dp2824
I9
I1
ssg31
(dp2825
I9
I1
sI2
I1
sI4
I1
sI7
I1
ssS'pseudoaneurysm'
p2826
(dp2827
I9
I1
ssg2291
(dp2828
I0
I4
sI1
I3
sI2
I1
sI3
I2
sI6
I1
ssS'heart catheter'
p2829
(dp2830
I0
I1
ssS'bed rest'
p2831
(dp2832
I6
I1
ssS'biv'
p2833
(dp2834
I5
I1
ssg1543
(dp2835
I0
I1
sI1
I2
sI2
I1
sI3
I2
sI4
I1
sI8
I1
sI9
I3
ssg49
(dp2836
I2
I1
sI7
I1
ssg295
(dp2837
I1
I1
ssg918
(dp2838
I9
I1
ssS'test blood'
p2839
(dp2840
I0
I1
ssS'myocardial infarction'
p2841
(dp2842
I0
I1
ssS'cardiovascular system'
p2843
(dp2844
I7
I1
ssS'heart catheterization'
p2845
(dp2846
I0
I1
ssg59
(dp2847
I0
I4
sI1
I3
sI2
I1
sI3
I3
sI4
I3
sI5
I2
sI6
I3
sI7
I1
sI8
I1
sI9
I4
ssg466
(dp2848
I8
I2
sI4
I1
sI6
I1
ssg65
(dp2849
I8
I1
sI2
I1
sI5
I2
ssS'hair'
p2850
(dp2851
I6
I1
ssg267
(dp2852
I8
I1
ssg71
(dp2853
I8
I1
ssg171
(dp2854
I0
I4
sI1
I3
sI2
I1
sI3
I2
sI6
I1
ssS'ultrasound imaging'
p2855
(dp2856
I9
I1
ssS'nursing care'
p2857
(dp2858
I6
I2
ssg772
(dp2859
I5
I1
ssg1559
(dp2860
I5
I1
ssg79
(dp2861
I6
I1
ssg177
(dp2862
I8
I1
sI1
I1
sI9
I2
ssg37
(dp2863
I7
I1
ssS'angiography'
p2864
(dp2865
I9
I1
ssg99
(dp2866
I8
I1
sI9
I1
sI2
I1
sI4
I1
ssg95
(dp2867
I4
I1
sI5
I2
sI7
I1
ssg628
(dp2868
I8
I1
sI5
I1
ssS'dissection'
p2869
(dp2870
I1
I1
sI9
I1
ssg2329
(dp2871
I0
I2
sI1
I2
sI3
I1
ssg943
(dp2872
I1
I1
sI7
I1
ssg2334
(dp2873
I0
I3
sI1
I2
sI2
I1
sI3
I1
ssg67
(dp2874
I0
I1
sI3
I1
ssg115
(dp2875
I9
I1
sI2
I1
sI4
I1
sI7
I1
ssg233
(dp2876
I5
I1
ssg640
(dp2877
I2
I1
sI6
I1
ssS'heart attack'
p2878
(dp2879
I0
I1
ssS'popliteal arteries'
p2880
(dp2881
I4
I1
ssg125
(dp2882
I8
I1
sI9
I1
ssS'radial artery'
p2883
(dp2884
I3
I1
ssg1579
(dp2885
I9
I1
ssS'limb'
p2886
(dp2887
I8
I1
ssg89
(dp2888
I7
I1
ssS'pseudoaneurysms'
p2889
(dp2890
I9
I1
ssS'myocardia'
p2891
(dp2892
I0
I1
ssg139
(dp2893
I0
I1
ssg141
(dp2894
I5
I1
ssS'myocardial infarct'
p2895
(dp2896
I0
I1
ssS'grafts'
p2897
(dp2898
I6
I1
ssS'ischemia'
p2899
(dp2900
I8
I1
sI7
I1
ssg2104
(dp2901
I4
I1
ssg149
(dp2902
I3
I1
ssg2361
(dp2903
I0
I2
sI1
I2
sI3
I1
ssg157
(dp2904
I0
I2
sI1
I1
sI2
I1
sI4
I2
sI5
I3
sI7
I2
sI8
I2
sI9
I1
ssg159
(dp2905
I5
I1
ssg680
(dp2906
I9
I1
ssg825
(dp2907
I6
I1
ssg531
(dp2908
I4
I1
ssg167
(dp2909
I0
I1
sI1
I1
sI2
I1
sI8
I1
sI7
I1
ssg169
(dp2910
I6
I1
ssg768
(dp2911
I6
I1
ssg77
(dp2912
I4
I1
sI7
I1
ssg2437
(dp2913
I6
I1
ssg1604
(dp2914
I9
I2
ssS'groin'
p2915
(dp2916
I1
I1
sI3
I1
ssg181
(dp2917
I0
I2
sI5
I1
ssg839
(dp2918
I6
I2
ssS'catheters'
p2919
(dp2920
I3
I1
ssS'upper limbs'
p2921
(dp2922
I8
I1
ssg2377
(dp2923
I0
I1
sI1
I2
sI2
I1
sI3
I1
sI8
I1
sI9
I2
ssg1227
(dp2924
I0
I3
sI1
I2
sI2
I1
sI3
I1
ssg189
(dp2925
I7
I1
ssg197
(dp2926
I0
I1
sI3
I2
sI7
I1
ssS'graft'
p2927
(dp2928
I3
I1
sI6
I1
ssg199
(dp2929
I9
I1
ssS'cardiology'
p2930
(dp2931
I7
I1
ssg392
(dp2932
I8
I1
ssS'infarction'
p2933
(dp2934
I0
I1
ssS'gangrene'
p2935
(dp2936
I4
I1
ssS'etec'
p2937
(dp2938
I4
I1
ssg221
(dp2939
I0
I1
sI1
I1
sI3
I1
sI4
I1
sI7
I1
ssg227
(dp2940
I8
I1
sI1
I2
ssg1136
(dp2941
I9
I1
sI7
I1
ssg235
(dp2942
I0
I1
ssg2399
(dp2943
I0
I4
sI1
I3
sI2
I1
sI3
I2
sI6
I1
ssg239
(dp2944
I5
I1
sI7
I1
ssg412
(dp2945
I5
I1
ssg1019
(dp2946
I6
I1
ssg247
(dp2947
I4
I1
sI6
I1
ssS'upper limb'
p2948
(dp2949
I8
I1
ssS'suture'
p2950
(dp2951
I1
I1
ssg417
(dp2952
I8
I1
sI9
I1
sI2
I2
sI4
I1
sI6
I1
ssg1647
(dp2953
I4
I1
ssg253
(dp2954
I5
I1
sI7
I1
sssS'13'
p2955
(dp2956
g1899
(dp2957
I9
I2
sI3
I1
sI4
I2
ssg1960
(dp2958
I1
I1
ssS'hypoxi'
p2959
(dp2960
I9
I1
ssg157
(dp2961
I0
I2
sI1
I1
sI2
I1
sI3
I1
sI4
I2
sI5
I1
sI6
I3
sI7
I3
sI8
I3
ssg586
(dp2962
I7
I1
ssg211
(dp2963
I8
I1
sI9
I1
sI6
I1
ssg274
(dp2964
I1
I1
ssg437
(dp2965
I8
I1
ssg1909
(dp2966
I9
I2
sI3
I1
sI4
I2
ssg2677
(dp2967
I1
I1
ssS'postpartum'
p2968
(dp2969
I3
I1
sI4
I1
ssg1712
(dp2970
I3
I1
ssg2783
(dp2971
I5
I1
ssg447
(dp2972
I4
I1
ssS'embolism pulmonary'
p2973
(dp2974
I4
I1
ssg451
(dp2975
I7
I1
ssg2933
(dp2976
I6
I1
ssg249
(dp2977
I8
I1
sI9
I1
sI6
I1
ssg2841
(dp2978
I6
I1
ssg300
(dp2979
I8
I1
sI4
I2
ssS'neck pain'
p2980
(dp2981
I1
I1
ssg302
(dp2982
I9
I1
sI3
I1
ssg59
(dp2983
I2
I1
sI3
I1
sI4
I2
ssg1171
(dp2984
I5
I1
ssg1317
(dp2985
I9
I1
ssg167
(dp2986
I8
I1
sI1
I1
sI9
I2
ssg67
(dp2987
I6
I1
ssg69
(dp2988
I1
I1
ssg175
(dp2989
I3
I1
ssg79
(dp2990
I9
I1
ssg331
(dp2991
I6
I1
sI7
I1
ssg2209
(dp2992
I7
I1
ssg95
(dp2993
I0
I1
sI1
I1
sI3
I2
sI4
I1
sI6
I1
sI8
I1
sI9
I2
ssg97
(dp2994
I1
I1
ssg99
(dp2995
I3
I1
sI4
I1
ssg633
(dp2996
I0
I1
ssg340
(dp2997
I6
I1
sI7
I1
ssS'missions'
p2998
(dp2999
I5
I1
ssg115
(dp3000
I0
I1
sI1
I1
sI2
I1
sI3
I1
sI8
I1
ssg119
(dp3001
I1
I1
ssg233
(dp3002
I6
I1
ssS'respiratory tract infection'
p3003
(dp3004
I5
I1
ssg640
(dp3005
I8
I1
ssg573
(dp3006
I9
I1
ssg235
(dp3007
I0
I1
ssS'vasodilators'
p3008
(dp3009
I8
I1
ssg501
(dp3010
I4
I1
ssg644
(dp3011
I4
I1
ssg1209
(dp3012
I5
I1
sI7
I1
ssg609
(dp3013
I9
I1
ssS'england'
p3014
(dp3015
I5
I1
ssg2891
(dp3016
I6
I1
ssg139
(dp3017
I5
I1
ssg141
(dp3018
I5
I1
ssg2895
(dp3019
I6
I1
ssg1217
(dp3020
I0
I1
sI8
I1
sI3
I1
sI6
I1
ssg145
(dp3021
I1
I2
ssg147
(dp3022
I1
I2
ssS'outpatient'
p3023
(dp3024
I3
I1
ssg1091
(dp3025
I5
I1
ssg965
(dp3026
I0
I1
ssg155
(dp3027
I1
I1
ssS'postpartum period'
p3028
(dp3029
I4
I1
ssg527
(dp3030
I4
I1
ssg531
(dp3031
I3
I1
ssg187
(dp3032
I5
I1
sI7
I1
ssg171
(dp3033
I9
I1
ssg1231
(dp3034
I5
I3
ssg77
(dp3035
I9
I2
sI4
I1
ssg177
(dp3036
I9
I3
sI2
I1
sI3
I1
sI1
I1
ssg179
(dp3037
I1
I1
ssg379
(dp3038
I8
I1
sI4
I1
sI7
I3
ssg125
(dp3039
I1
I1
sI5
I2
ssg691
(dp3040
I5
I1
ssg185
(dp3041
I3
I1
ssg1227
(dp3042
I0
I1
sI8
I1
sI3
I1
sI6
I2
ssg31
(dp3043
I0
I1
sI1
I1
sI2
I1
sI3
I1
sI8
I1
ssg1874
(dp3044
I7
I1
ssg1245
(dp3045
I0
I1
ssS'aged'
p3046
(dp3047
I4
I2
ssg197
(dp3048
I1
I1
sI4
I1
ssg1250
(dp3049
I0
I1
ssg551
(dp3050
I9
I1
ssg27
(dp3051
I8
I2
sI9
I1
sI3
I1
ssg217
(dp3052
I4
I1
ssg1255
(dp3053
I0
I1
sI8
I1
sI2
I1
ssg221
(dp3054
I9
I4
sI4
I1
ssg223
(dp3055
I5
I1
ssg225
(dp3056
I0
I1
sI1
I1
sI6
I1
ssg227
(dp3057
I0
I1
sI1
I1
sI9
I1
sI6
I1
sI8
I1
ssg1202
(dp3058
I3
I1
ssg205
(dp3059
I2
I1
sI5
I1
ssS'cyanosis'
p3060
(dp3061
I0
I1
ssg948
(dp3062
I8
I1
ssg123
(dp3063
I1
I1
ssg1739
(dp3064
I5
I1
ssg410
(dp3065
I1
I1
ssg412
(dp3066
I0
I1
sI1
I1
sI2
I1
sI3
I1
sI6
I1
sI7
I1
sI8
I1
sI9
I1
ssS'crepi'
p3067
(dp3068
I5
I1
ssg417
(dp3069
I3
I1
ssg671
(dp3070
I5
I1
sssS'12'
p3071
(dp3072
g2529
(dp3073
I8
I1
ssS'hypothyroidism'
p3074
(dp3075
I8
I1
sI9
I2
sI4
I1
sI5
I1
ssg884
(dp3076
I0
I1
sI1
I1
sI2
I1
sI3
I2
sI4
I1
ssg1037
(dp3077
I8
I1
ssg733
(dp3078
I1
I1
sI2
I3
sI3
I2
sI4
I2
sI5
I1
sI7
I2
sI8
I1
sI9
I2
ssS'tremors'
p3079
(dp3080
I8
I1
ssg768
(dp3081
I0
I2
sI1
I2
sI2
I1
sI3
I4
sI4
I1
sI5
I1
sI6
I3
sI7
I2
sI9
I3
ssg278
(dp3082
I9
I1
ssg280
(dp3083
I5
I1
ssg185
(dp3084
I0
I2
sI1
I1
sI3
I1
sI9
I1
ssS'food'
p3085
(dp3086
I0
I1
ssS'libido'
p3087
(dp3088
I5
I1
ssg55
(dp3089
I1
I1
sI3
I1
sI5
I1
sI7
I1
ssg1502
(dp3090
I8
I1
sI3
I1
sI5
I1
ssg2166
(dp3091
I5
I1
ssS'dizziness'
p3092
(dp3093
I8
I1
ssg300
(dp3094
I8
I1
sI6
I1
ssg59
(dp3095
I1
I1
sI5
I1
sI6
I1
sI7
I1
ssg2350
(dp3096
I0
I1
sI1
I1
sI2
I1
sI3
I1
sI5
I2
ssg466
(dp3097
I0
I1
ssg1317
(dp3098
I9
I1
ssg615
(dp3099
I0
I1
ssg2850
(dp3100
I0
I2
sI1
I2
sI2
I1
sI3
I4
sI4
I1
sI5
I1
sI6
I3
sI7
I2
sI9
I3
ssg67
(dp3101
I1
I1
ssg171
(dp3102
I1
I1
sI3
I1
sI5
I1
sI7
I1
ssg1904
(dp3103
I0
I1
sI1
I1
sI2
I1
sI3
I2
sI4
I1
sI5
I1
sI7
I1
sI9
I1
ssg2200
(dp3104
I8
I1
sI2
I1
sI5
I1
sI7
I1
ssg315
(dp3105
I8
I1
sI6
I1
ssg317
(dp3106
I8
I1
ssg79
(dp3107
I9
I1
ssS'research'
p3108
(dp3109
I1
I1
ssg324
(dp3110
I2
I1
sI6
I1
ssg1064
(dp3111
I9
I1
ssg95
(dp3112
I5
I2
ssS'nails'
p3113
(dp3114
I5
I1
ssg99
(dp3115
I0
I1
sI2
I2
sI3
I1
sI5
I2
sI6
I1
sI7
I1
sI9
I2
ssg943
(dp3116
I0
I1
ssg103
(dp3117
I4
I1
sI6
I1
ssg2724
(dp3118
I8
I1
ssS'weight gain'
p3119
(dp3120
I0
I1
sI1
I1
sI2
I1
sI5
I1
sI7
I1
sI8
I1
sI9
I1
ssS'muscle weakness'
p3121
(dp3122
I6
I1
ssg2086
(dp3123
I5
I2
ssg181
(dp3124
I7
I1
ssS'lethargy'
p3125
(dp3126
I4
I1
ssg135
(dp3127
I0
I1
ssg139
(dp3128
I1
I1
sI9
I1
ssg2606
(dp3129
I4
I1
ssg2357
(dp3130
I0
I1
ssS'stomach'
p3131
(dp3132
I8
I1
ssS'alopecia'
p3133
(dp3134
I6
I1
ssS'carpal tunnel syndrome'
p3135
(dp3136
I5
I1
ssg157
(dp3137
I0
I1
sI1
I2
sI8
I2
sI6
I1
sI7
I1
ssg527
(dp3138
I9
I1
sI2
I1
sI3
I1
sI7
I1
ssS'nail'
p3139
(dp3140
I5
I1
ssg167
(dp3141
I0
I1
sI1
I1
sI2
I2
sI3
I1
sI5
I2
sI7
I1
ssg829
(dp3142
I8
I1
sI6
I1
ssg313
(dp3143
I3
I1
sI6
I1
ssg177
(dp3144
I9
I1
sI2
I3
sI3
I2
sI5
I2
sI1
I1
ssg1760
(dp3145
I9
I1
ssg125
(dp3146
I5
I1
ssg2128
(dp3147
I1
I1
ssg868
(dp3148
I0
I1
ssg529
(dp3149
I7
I1
ssg1974
(dp3150
I1
I1
ssg698
(dp3151
I2
I1
sI5
I1
sI6
I1
sI7
I1
ssg386
(dp3152
I0
I1
sI3
I1
ssg197
(dp3153
I1
I1
sI2
I3
sI3
I2
sI4
I2
sI5
I2
sI7
I2
sI8
I1
sI9
I2
ssg547
(dp3154
I9
I1
ssS'reference range'
p3155
(dp3156
I9
I1
ssg1984
(dp3157
I8
I1
sI5
I1
ssS'elisa'
p3158
(dp3159
I5
I1
ssg27
(dp3160
I1
I1
sI2
I1
ssg221
(dp3161
I9
I1
sI5
I1
ssg227
(dp3162
I8
I1
ssg1261
(dp3163
I9
I1
ssg567
(dp3164
I8
I1
ssg403
(dp3165
I8
I1
ssg948
(dp3166
I0
I2
sI1
I1
sI2
I1
sI3
I1
sI7
I1
sI8
I2
sI9
I1
ssg1636
(dp3167
I3
I1
ssS'thyroid disease'
p3168
(dp3169
I7
I1
ssg247
(dp3170
I7
I1
ssS'gilberts syndrome'
p3171
(dp3172
I8
I1
ssg415
(dp3173
I8
I1
sI5
I1
ssg251
(dp3174
I3
I1
sI6
I2
ssg421
(dp3175
I8
I1
sI6
I1
ssg253
(dp3176
I8
I1
sI4
I1
sssS'15'
p3177
(dp3178
S'gold'
p3179
(dp3180
I9
I1
ssS'molar pregnancy'
p3181
(dp3182
I1
I1
ssg9
(dp3183
I1
I2
sI3
I1
sI5
I1
ssg1151
(dp3184
I6
I1
ssg17
(dp3185
I7
I1
ssS'cervix'
p3186
(dp3187
I2
I1
ssg19
(dp3188
I2
I1
ssg1288
(dp3189
I1
I1
sI2
I1
sI3
I2
sI4
I1
sI5
I1
sI6
I1
ssg270
(dp3190
I9
I1
ssg211
(dp3191
I8
I1
ssS'tail'
p3192
(dp3193
I5
I1
ssS'point of care'
p3194
(dp3195
I3
I1
ssg527
(dp3196
I5
I1
ssg2968
(dp3197
I6
I1
ssg893
(dp3198
I7
I1
ssg31
(dp3199
I0
I2
sI8
I1
sI9
I1
sI7
I1
ssS'scrotum'
p3200
(dp3201
I8
I1
ssg449
(dp3202
I8
I1
ssg2291
(dp3203
I3
I1
ssg451
(dp3204
I2
I1
ssS'gestation'
p3205
(dp3206
I2
I1
ssS'bear'
p3207
(dp3208
I5
I1
ssg249
(dp3209
I8
I1
ssg1299
(dp3210
I8
I1
ssg43
(dp3211
I1
I1
sI7
I1
ssg2295
(dp3212
I1
I1
ssS'deta'
p3213
(dp3214
I5
I1
ssg51
(dp3215
I7
I1
ssg55
(dp3216
I0
I1
ssS'vision'
p3217
(dp3218
I7
I1
ssg300
(dp3219
I5
I1
ssg57
(dp3220
I1
I1
sI7
I1
ssg302
(dp3221
I8
I1
sI6
I2
ssg59
(dp3222
I9
I1
sI2
I1
sI6
I1
ssg61
(dp3223
I7
I1
ssg63
(dp3224
I8
I1
sI1
I1
sI9
I1
ssS'endometrium'
p3225
(dp3226
I6
I2
ssS'culture'
p3227
(dp3228
I5
I1
ssg67
(dp3229
I8
I1
sI4
I1
sI5
I1
ssg1396
(dp3230
I0
I1
sI3
I1
ssS'septic abortion'
p3231
(dp3232
I7
I1
ssg79
(dp3233
I5
I1
ssg324
(dp3234
I1
I1
sI9
I1
ssg326
(dp3235
I7
I1
ssg331
(dp3236
I2
I1
ssg623
(dp3237
I6
I1
ssS'fetal heart'
p3238
(dp3239
I2
I1
ssg95
(dp3240
I8
I1
ssg335
(dp3241
I6
I1
ssg99
(dp3242
I0
I1
sI9
I1
sI3
I1
sI5
I1
sI6
I1
ssg2818
(dp3243
I9
I1
ssg103
(dp3244
I9
I1
ssS'erythrocyte sedimentation'
p3245
(dp3246
I9
I1
ssS'ovum'
p3247
(dp3248
I2
I1
ssS'endometria'
p3249
(dp3250
I6
I2
ssg115
(dp3251
I0
I2
sI8
I1
sI9
I1
sI7
I1
ssg119
(dp3252
I5
I1
ssg495
(dp3253
I8
I1
ssS'cyst'
p3254
(dp3255
I0
I1
sI3
I1
sI4
I1
ssg640
(dp3256
I0
I1
sI3
I2
sI4
I1
ssg803
(dp3257
I1
I1
ssg125
(dp3258
I7
I1
ssg503
(dp3259
I0
I1
ssg1342
(dp3260
I1
I2
sI2
I2
sI3
I2
sI4
I1
sI5
I1
sI6
I1
sI7
I1
ssg139
(dp3261
I8
I1
sI5
I1
ssS'erythrocyte'
p3262
(dp3263
I9
I1
ssS'ppar'
p3264
(dp3265
I6
I1
ssS'cultures'
p3266
(dp3267
I5
I1
ssg661
(dp3268
I2
I1
sI3
I1
ssg1091
(dp3269
I5
I1
ssg153
(dp3270
I9
I1
sI7
I1
ssg365
(dp3271
I5
I1
ssg157
(dp3272
I0
I1
sI1
I1
sI2
I1
sI3
I1
sI4
I1
sI5
I3
sI6
I1
sI7
I1
sI8
I3
sI9
I2
ssS'gestational sac'
p3273
(dp3274
I2
I1
ssg680
(dp3275
I0
I1
sI1
I1
sI2
I1
sI6
I1
ssg185
(dp3276
I7
I1
ssg412
(dp3277
I8
I1
ssg531
(dp3278
I5
I1
ssg167
(dp3279
I0
I1
sI3
I1
sI4
I1
ssg169
(dp3280
I1
I1
ssg177
(dp3281
I0
I1
sI1
I1
sI2
I1
sI3
I1
sI5
I1
sI6
I1
sI7
I1
sI9
I1
ssS'cerebral arteries'
p3282
(dp3283
I9
I1
ssg379
(dp3284
I8
I1
ssg181
(dp3285
I2
I1
ssg1475
(dp3286
I0
I1
sI3
I1
sI4
I1
sI5
I1
ssS'liver function tests'
p3287
(dp3288
I7
I1
ssg529
(dp3289
I5
I1
ssg187
(dp3290
I0
I1
sI8
I1
sI3
I1
sI4
I1
sI5
I1
ssg698
(dp3291
I9
I1
sI7
I1
ssS'pelvis'
p3292
(dp3293
I6
I1
ssg1432
(dp3294
I5
I1
ssg545
(dp3295
I8
I1
ssg199
(dp3296
I6
I2
ssg2508
(dp3297
I0
I1
sI3
I1
sI4
I1
ssg195
(dp3298
I1
I1
ssg197
(dp3299
I0
I1
sI1
I2
sI3
I3
sI4
I1
sI5
I1
sI8
I1
ssg27
(dp3300
I8
I1
sI6
I2
ssg215
(dp3301
I8
I1
sI1
I1
ssS'liver function test'
p3302
(dp3303
I7
I1
ssg221
(dp3304
I0
I1
sI3
I1
sI4
I1
sI7
I1
ssg225
(dp3305
I4
I1
ssg227
(dp3306
I8
I3
sI1
I1
sI9
I1
sI5
I1
sI7
I1
ssg1387
(dp3307
I6
I1
ssg403
(dp3308
I9
I1
ssg233
(dp3309
I1
I1
sI9
I1
sI7
I1
ssg235
(dp3310
I9
I1
ssg570
(dp3311
I0
I1
ssg243
(dp3312
I0
I1
sI1
I1
sI9
I1
sI6
I4
sI8
I1
ssg1019
(dp3313
I2
I1
ssS'dyspareunia'
p3314
(dp3315
I5
I1
ssg247
(dp3316
I6
I1
ssS'differential diagnosis'
p3317
(dp3318
I0
I1
sI3
I1
sI4
I1
ssg417
(dp3319
I0
I1
sI3
I1
sI4
I1
ssg1399
(dp3320
I0
I2
sI1
I1
sI2
I1
sI3
I1
sI4
I1
sI5
I2
sI6
I1
sI7
I1
sI9
I1
ssg253
(dp3321
I1
I1
sssS'14'
p3322
(dp3323
g1521
(dp3324
I9
I1
ssg3
(dp3325
I5
I1
ssg3179
(dp3326
I7
I2
ssg25
(dp3327
I5
I1
ssg1960
(dp3328
I5
I1
ssg1037
(dp3329
I7
I1
ssS'activities of daily living'
p3330
(dp3331
I8
I1
sI9
I1
sI2
I1
ssg259
(dp3332
I0
I1
sI1
I1
sI3
I1
sI4
I1
ssS'environment'
p3333
(dp3334
I4
I1
ssg274
(dp3335
I0
I1
sI1
I1
sI3
I1
sI5
I1
sI6
I1
ssg278
(dp3336
I0
I1
sI3
I1
ssS'teaching'
p3337
(dp3338
I6
I1
ssg891
(dp3339
I9
I1
ssg31
(dp3340
I2
I1
sI5
I1
ssg513
(dp3341
I8
I1
ssg33
(dp3342
I7
I1
ssg1043
(dp3343
I8
I1
ssg49
(dp3344
I9
I1
ssg939
(dp3345
I3
I1
ssS'drainage'
p3346
(dp3347
I6
I1
ssg300
(dp3348
I4
I1
ssg2980
(dp3349
I5
I1
ssg3125
(dp3350
I7
I1
ssg466
(dp3351
I6
I1
ssg67
(dp3352
I3
I1
ssg69
(dp3353
I5
I1
ssg171
(dp3354
I8
I1
ssg317
(dp3355
I7
I1
ssg79
(dp3356
I6
I1
ssS'emphysema'
p3357
(dp3358
I6
I1
ssg324
(dp3359
I8
I1
sI4
I1
ssg329
(dp3360
I6
I1
ssg1566
(dp3361
I6
I1
ssg2576
(dp3362
I2
I1
ssg95
(dp3363
I9
I1
sI5
I1
sI6
I2
ssg2580
(dp3364
I4
I2
ssg97
(dp3365
I5
I1
ssg99
(dp3366
I0
I1
sI2
I2
sI3
I2
sI4
I1
sI7
I1
sI8
I1
sI9
I1
ssg943
(dp3367
I3
I1
ssg103
(dp3368
I7
I1
ssg340
(dp3369
I6
I2
sI7
I1
ssg113
(dp3370
I0
I1
sI1
I1
sI3
I1
sI4
I1
ssg115
(dp3371
I2
I1
sI5
I1
ssg119
(dp3372
I5
I1
ssS'phlebotomy'
p3373
(dp3374
I5
I1
ssg1206
(dp3375
I6
I1
ssg1209
(dp3376
I6
I1
ssg129
(dp3377
I7
I1
ssg59
(dp3378
I7
I1
ssg654
(dp3379
I1
I1
ssg691
(dp3380
I8
I1
ssS'hematocrit'
p3381
(dp3382
I5
I1
ssg1083
(dp3383
I7
I1
ssg139
(dp3384
I3
I1
sI6
I1
ssg141
(dp3385
I7
I1
ssg2606
(dp3386
I1
I1
sI4
I1
ssg145
(dp3387
I5
I1
ssg1088
(dp3388
I4
I1
ssS'secretions'
p3389
(dp3390
I6
I1
ssg1352
(dp3391
I6
I1
ssg671
(dp3392
I8
I3
ssg155
(dp3393
I5
I1
ssg157
(dp3394
I0
I1
sI1
I2
sI2
I2
sI3
I1
sI4
I1
sI5
I1
sI6
I3
sI7
I1
sI8
I2
sI9
I1
ssg680
(dp3395
I1
I1
ssS'physical therapist'
p3396
(dp3397
I9
I2
ssg167
(dp3398
I0
I1
sI3
I1
sI5
I1
ssg768
(dp3399
I0
I1
sI1
I1
sI3
I1
sI6
I1
ssg77
(dp3400
I5
I1
ssg177
(dp3401
I0
I1
sI1
I1
sI4
I1
sI5
I1
sI9
I1
ssS'iron'
p3402
(dp3403
I4
I1
ssg179
(dp3404
I5
I1
ssg379
(dp3405
I9
I1
ssg125
(dp3406
I9
I1
sI3
I1
sI6
I1
ssS'nursing home'
p3407
(dp3408
I8
I1
ssg839
(dp3409
I8
I3
ssg147
(dp3410
I5
I1
ssg185
(dp3411
I1
I1
ssg187
(dp3412
I6
I1
ssg2783
(dp3413
I6
I1
ssg1974
(dp3414
I6
I1
ssg698
(dp3415
I9
I1
ssS'continuing education'
p3416
(dp3417
I8
I1
ssg388
(dp3418
I8
I1
ssg197
(dp3419
I0
I1
sI1
I1
sI3
I1
sI4
I2
sI5
I1
ssg199
(dp3420
I8
I1
ssS'assisted living facility'
p3421
(dp3422
I8
I1
ssS'critical illness'
p3423
(dp3424
I4
I1
ssS'care nursing'
p3425
(dp3426
I8
I1
ssg27
(dp3427
I8
I1
sI9
I1
sI2
I1
sI6
I2
ssS'chronic diseases'
p3428
(dp3429
I8
I1
ssg221
(dp3430
I4
I1
sI6
I1
ssg223
(dp3431
I4
I1
ssg225
(dp3432
I5
I1
ssg227
(dp3433
I5
I1
ssg205
(dp3434
I0
I1
sI1
I1
sI3
I1
ssg567
(dp3435
I6
I1
ssg403
(dp3436
I7
I2
ssS'rumen'
p3437
(dp3438
I8
I1
ssg860
(dp3439
I8
I1
ssg123
(dp3440
I5
I1
ssS'exercises'
p3441
(dp3442
I6
I1
ssg407
(dp3443
I9
I1
ssg239
(dp3444
I9
I2
sI5
I1
sI1
I1
ssg410
(dp3445
I5
I1
ssg247
(dp3446
I8
I1
ssg575
(dp3447
I8
I1
ssg1270
(dp3448
I6
I1
ssg417
(dp3449
I0
I1
sI3
I1
ssS'physical therapists'
p3450
(dp3451
I9
I1
ssS'thc'
p3452
(dp3453
I8
I1
ssg1650
(dp3454
I8
I1
sssS'17'
p3455
(dp3456
g1031
(dp3457
I7
I1
ssS'feedback'
p3458
(dp3459
I0
I1
ssg3179
(dp3460
I9
I1
ssS'gallbladder'
p3461
(dp3462
I7
I1
ssg2822
(dp3463
I9
I1
ssg968
(dp3464
I2
I1
ssS'stricture'
p3465
(dp3466
I7
I1
ssS'fusin'
p3467
(dp3468
I0
I1
ssS'liver abscess'
p3469
(dp3470
I8
I2
sI0
I1
sI3
I2
sI6
I1
sI1
I1
ssg31
(dp3471
I9
I1
ssg33
(dp3472
I9
I1
sI3
I1
ssg451
(dp3473
I7
I1
ssS'heme'
p3474
(dp3475
I5
I1
ssS'hepatic abscess'
p3476
(dp3477
I2
I3
ssg49
(dp3478
I5
I1
ssg55
(dp3479
I0
I1
sI3
I1
ssS'developing countries'
p3480
(dp3481
I3
I1
ssg300
(dp3482
I3
I1
ssg59
(dp3483
I0
I1
sI9
I1
ssg1806
(dp3484
I5
I1
sI7
I1
ssg63
(dp3485
I0
I1
sI1
I1
sI2
I1
sI6
I1
sI9
I1
ssg1317
(dp3486
I0
I1
sI8
I1
ssg67
(dp3487
I1
I1
sI6
I1
ssS'laparotomy'
p3488
(dp3489
I0
I1
sI8
I1
sI6
I1
ssg1842
(dp3490
I3
I1
ssS'colic'
p3491
(dp3492
I5
I1
ssg772
(dp3493
I2
I1
ssS'fevers'
p3494
(dp3495
I2
I1
ssg319
(dp3496
I7
I1
ssg1823
(dp3497
I5
I1
sI7
I1
ssg2209
(dp3498
I7
I1
ssg95
(dp3499
I8
I1
sI3
I1
sI5
I1
ssS'peritoneal fluid'
p3500
(dp3501
I0
I1
sI1
I1
sI6
I1
ssg99
(dp3502
I9
I2
sI3
I1
sI4
I1
ssg103
(dp3503
I9
I1
ssg3245
(dp3504
I9
I1
ssg115
(dp3505
I9
I1
ssg1077
(dp3506
I8
I1
ssg3254
(dp3507
I7
I1
ssg640
(dp3508
I6
I1
ssS'tuberculous peritonitis'
p3509
(dp3510
I4
I1
ssS'common variable immunodeficiency'
p3511
(dp3512
I0
I1
sI1
I1
sI6
I1
ssS'amoebic liver abscess'
p3513
(dp3514
I8
I1
sI3
I2
ssg652
(dp3515
I7
I1
ssg129
(dp3516
I9
I1
ssS'amylase'
p3517
(dp3518
I9
I2
ssg89
(dp3519
I1
I1
ssS'hepatomegaly'
p3520
(dp3521
I1
I1
sI3
I1
sI6
I1
ssg139
(dp3522
I0
I1
ssg3262
(dp3523
I9
I1
ssS'bladder'
p3524
(dp3525
I7
I1
ssg363
(dp3526
I6
I1
ssg153
(dp3527
I0
I1
sI1
I1
sI3
I2
sI4
I1
sI5
I1
sI6
I1
sI8
I2
sI9
I1
ssg157
(dp3528
I0
I1
sI1
I2
sI2
I1
sI3
I1
sI4
I1
sI5
I1
sI6
I1
sI7
I1
sI8
I1
sI9
I2
ssg23
(dp3529
I0
I1
sI1
I1
sI4
I1
sI6
I1
sI8
I1
ssg680
(dp3530
I1
I1
sI2
I1
sI5
I1
sI6
I1
sI7
I1
sI8
I1
ssg1098
(dp3531
I7
I1
ssg167
(dp3532
I7
I1
ssg169
(dp3533
I8
I1
sI2
I1
ssg768
(dp3534
I3
I1
ssg77
(dp3535
I3
I1
sI5
I1
ssg177
(dp3536
I0
I1
sI1
I3
sI2
I1
sI3
I1
sI5
I2
sI6
I3
sI7
I1
sI8
I3
sI9
I1
ssg379
(dp3537
I4
I1
sI7
I1
ssS'common bile duct'
p3538
(dp3539
I7
I1
ssg185
(dp3540
I4
I1
sI6
I1
ssg187
(dp3541
I0
I1
sI1
I1
sI3
I1
sI5
I1
sI6
I2
sI8
I1
sI9
I1
ssg1974
(dp3542
I0
I1
ssg1981
(dp3543
I2
I1
ssg698
(dp3544
I9
I1
ssS'tomography'
p3545
(dp3546
I8
I1
ssg197
(dp3547
I0
I1
sI1
I1
sI2
I3
sI3
I1
sI5
I1
sI6
I2
sI8
I2
sI9
I1
ssg2385
(dp3548
I0
I1
sI1
I1
sI6
I1
ssg1123
(dp3549
I0
I1
sI1
I1
sI2
I3
sI3
I2
sI4
I1
sI6
I1
sI8
I2
ssg553
(dp3550
I3
I1
ssg207
(dp3551
I9
I1
ssg27
(dp3552
I5
I2
ssg217
(dp3553
I8
I1
sI2
I1
sI3
I1
ssg221
(dp3554
I0
I1
sI2
I3
sI7
I2
ssg223
(dp3555
I7
I1
ssg225
(dp3556
I8
I1
sI1
I2
sI2
I1
sI3
I1
sI6
I2
ssg227
(dp3557
I0
I1
sI1
I1
sI2
I1
sI3
I1
sI4
I1
sI6
I1
sI9
I1
ssS'gastroenterology'
p3558
(dp3559
I5
I1
sI7
I1
ssg199
(dp3560
I8
I1
ssg205
(dp3561
I8
I1
sI5
I1
ssg858
(dp3562
I3
I1
sI4
I1
ssg567
(dp3563
I1
I1
ssg403
(dp3564
I9
I1
ssg235
(dp3565
I9
I1
ssg570
(dp3566
I7
I1
ssg243
(dp3567
I0
I2
sI1
I1
sI2
I1
sI3
I1
sI4
I1
sI6
I2
sI7
I1
sI8
I1
sI9
I2
ssg1140
(dp3568
I4
I1
ssS'beds'
p3569
(dp3570
I8
I1
sI2
I1
ssS'dilatation'
p3571
(dp3572
I7
I1
ssg417
(dp3573
I2
I1
ssg253
(dp3574
I2
I1
sssS'16'
p3575
(dp3576
g3
(dp3577
I1
I1
ssg25
(dp3578
I1
I1
ssS'paper'
p3579
(dp3580
I6
I1
ssg1904
(dp3581
I6
I1
ssS'vibration'
p3582
(dp3583
I3
I1
ssg274
(dp3584
I6
I1
ssg278
(dp3585
I5
I1
ssg31
(dp3586
I0
I1
sI1
I1
sI9
I1
sI6
I1
sI7
I1
ssg451
(dp3587
I8
I1
sI6
I1
ssS'papers'
p3588
(dp3589
I6
I1
ssg2426
(dp3590
I3
I1
ssg604
(dp3591
I8
I1
ssg55
(dp3592
I0
I1
sI5
I1
ssg1502
(dp3593
I3
I2
sI4
I2
ssg918
(dp3594
I7
I1
ssg3092
(dp3595
I5
I1
ssg3217
(dp3596
I3
I1
ssg300
(dp3597
I6
I1
ssg2980
(dp3598
I0
I1
sI3
I1
ssg59
(dp3599
I9
I1
sI4
I1
ssS'lion'
p3600
(dp3601
I5
I1
ssg69
(dp3602
I1
I1
ssg71
(dp3603
I9
I1
ssg73
(dp3604
I0
I2
sI3
I1
sI4
I1
sI5
I1
sI6
I1
sI7
I1
sI8
I1
sI9
I1
ssg315
(dp3605
I5
I2
ssg628
(dp3606
I3
I1
sI6
I1
ssg933
(dp3607
I8
I1
sI2
I1
ssg87
(dp3608
I5
I1
ssS'email'
p3609
(dp3610
I4
I1
ssg95
(dp3611
I1
I1
sI9
I1
ssg2450
(dp3612
I4
I1
ssg97
(dp3613
I1
I1
ssg99
(dp3614
I4
I1
sI5
I2
ssS'baseball'
p3615
(dp3616
I8
I1
ssS'numbness'
p3617
(dp3618
I0
I1
sI3
I1
ssg115
(dp3619
I0
I1
sI1
I1
sI9
I1
sI6
I1
sI7
I1
ssg119
(dp3620
I1
I1
ssg1077
(dp3621
I3
I2
ssg3254
(dp3622
I9
I1
ssg640
(dp3623
I5
I1
ssg181
(dp3624
I9
I1
ssg503
(dp3625
I0
I1
ssg747
(dp3626
I6
I1
ssS'parkinsons disease'
p3627
(dp3628
I2
I2
ssg2596
(dp3629
I6
I1
ssg139
(dp3630
I7
I1
ssg141
(dp3631
I9
I1
sI6
I1
ssg1585
(dp3632
I3
I1
sI4
I1
ssg962
(dp3633
I3
I1
ssg2104
(dp3634
I3
I1
ssg147
(dp3635
I3
I1
ssS'neurological disorder'
p3636
(dp3637
I3
I1
ssS'general practitioner'
p3638
(dp3639
I5
I1
ssg155
(dp3640
I1
I1
ssS'suction'
p3641
(dp3642
I9
I1
ssg157
(dp3643
I0
I1
sI1
I1
sI2
I1
sI3
I1
sI4
I1
sI5
I1
sI6
I2
sI7
I1
sI8
I1
sI9
I2
ssS'steel'
p3644
(dp3645
I4
I1
ssS'animals'
p3646
(dp3647
I0
I1
ssg1615
(dp3648
I0
I1
sI1
I1
ssg531
(dp3649
I1
I1
ssg167
(dp3650
I0
I1
sI1
I1
sI3
I1
sI5
I1
sI6
I1
sI8
I1
ssg169
(dp3651
I5
I1
ssg829
(dp3652
I8
I1
ssg177
(dp3653
I8
I3
sI1
I3
sI3
I1
ssg179
(dp3654
I1
I1
ssg125
(dp3655
I8
I1
ssS'moth'
p3656
(dp3657
I4
I1
ssg185
(dp3658
I0
I1
sI6
I1
sI7
I1
ssg187
(dp3659
I3
I1
ssg386
(dp3660
I6
I1
ssg197
(dp3661
I9
I1
sI3
I1
sI1
I1
ssg2287
(dp3662
I7
I1
ssg559
(dp3663
I0
I1
ssg217
(dp3664
I3
I1
ssg2937
(dp3665
I1
I1
ssg221
(dp3666
I0
I1
sI5
I1
ssg223
(dp3667
I7
I1
ssg225
(dp3668
I6
I1
ssg227
(dp3669
I0
I1
sI9
I1
sI3
I2
ssg205
(dp3670
I9
I1
ssg567
(dp3671
I9
I1
sI6
I1
ssg123
(dp3672
I1
I1
ssg407
(dp3673
I3
I1
ssg570
(dp3674
I0
I1
ssg239
(dp3675
I1
I1
ssg410
(dp3676
I0
I1
sI3
I2
ssg1019
(dp3677
I6
I1
ssg247
(dp3678
I9
I1
sI2
I2
ssS'mother'
p3679
(dp3680
I4
I1
ssg2272
(dp3681
I7
I1
ssg363
(dp3682
I8
I1
ssg421
(dp3683
I5
I1
ssS'neurological disorders'
p3684
(dp3685
I3
I1
sssS'19'
p3686
(dp3687
g581
(dp3688
I4
I1
ssg1960
(dp3689
I0
I1
sI1
I1
sI2
I1
sI3
I1
sI5
I1
sI6
I1
sI7
I1
sI8
I1
ssS'dehydration'
p3690
(dp3691
I2
I1
ssg2166
(dp3692
I3
I1
ssg15
(dp3693
I8
I2
ssg2959
(dp3694
I2
I1
ssg2686
(dp3695
I9
I1
ssg27
(dp3696
I0
I1
sI3
I1
sI5
I1
sI6
I1
ssg31
(dp3697
I1
I2
sI2
I1
sI5
I1
ssg447
(dp3698
I8
I1
ssg449
(dp3699
I6
I1
ssg451
(dp3700
I9
I1
ssg899
(dp3701
I9
I1
ssg249
(dp3702
I6
I1
ssS'mucosa'
p3703
(dp3704
I9
I1
ssg43
(dp3705
I6
I1
ssS'drinking'
p3706
(dp3707
I4
I1
sI6
I1
sI7
I1
ssg1443
(dp3708
I4
I1
ssg289
(dp3709
I5
I1
ssg331
(dp3710
I6
I1
ssg49
(dp3711
I9
I1
sI5
I3
sI7
I1
ssg55
(dp3712
I0
I1
sI5
I2
sI7
I1
ssg607
(dp3713
I4
I1
ssg298
(dp3714
I2
I1
ssg1050
(dp3715
I3
I1
ssg300
(dp3716
I0
I2
sI3
I1
ssg57
(dp3717
I6
I1
ssg302
(dp3718
I5
I2
ssg59
(dp3719
I1
I1
sI4
I1
sI5
I2
sI7
I3
ssg63
(dp3720
I6
I1
ssS'heartburn'
p3721
(dp3722
I5
I1
ssg67
(dp3723
I9
I1
sI4
I1
sI6
I1
ssg69
(dp3724
I2
I1
ssg317
(dp3725
I9
I1
ssg79
(dp3726
I0
I1
sI5
I1
ssg81
(dp3727
I9
I1
ssg324
(dp3728
I8
I1
ssg37
(dp3729
I2
I1
ssS'jaundice'
p3730
(dp3731
I5
I1
ssg99
(dp3732
I9
I1
ssg95
(dp3733
I8
I1
sI1
I1
ssg97
(dp3734
I2
I1
ssg93
(dp3735
I5
I1
ssg338
(dp3736
I6
I1
ssg103
(dp3737
I9
I1
ssS'hematemesis'
p3738
(dp3739
I1
I1
ssg2724
(dp3740
I2
I1
ssg340
(dp3741
I6
I1
ssS'b cell lymphoma'
p3742
(dp3743
I9
I1
ssg115
(dp3744
I1
I2
sI2
I1
sI5
I1
ssg119
(dp3745
I0
I2
sI2
I1
ssS'il 10'
p3746
(dp3747
I0
I1
ssg1202
(dp3748
I3
I1
ssg495
(dp3749
I6
I1
ssg1836
(dp3750
I5
I1
ssS'dysphagia'
p3751
(dp3752
I0
I2
sI1
I2
sI4
I1
sI7
I2
sI8
I1
sI9
I1
ssg644
(dp3753
I4
I1
ssg181
(dp3754
I4
I1
sI5
I1
ssg503
(dp3755
I4
I1
ssg810
(dp3756
I7
I1
ssg2594
(dp3757
I0
I1
ssg89
(dp3758
I1
I1
sI6
I1
ssg1085
(dp3759
I8
I2
ssg139
(dp3760
I5
I1
sI6
I1
ssg141
(dp3761
I2
I1
ssS'hydra'
p3762
(dp3763
I2
I1
ssg2104
(dp3764
I3
I1
ssS'emesis'
p3765
(dp3766
I1
I1
ssg153
(dp3767
I5
I1
ssg155
(dp3768
I9
I1
sI2
I1
ssg674
(dp3769
I0
I1
sI1
I1
sI2
I1
sI4
I2
sI6
I1
sI7
I1
ssg157
(dp3770
I0
I4
sI1
I4
sI2
I2
sI3
I2
sI4
I3
sI5
I3
sI6
I3
sI7
I1
sI8
I1
sI9
I1
ssg527
(dp3771
I9
I1
ssg243
(dp3772
I9
I1
sI6
I1
ssg531
(dp3773
I8
I1
ssg167
(dp3774
I0
I1
sI2
I1
sI3
I1
ssg171
(dp3775
I5
I1
ssS'iscom'
p3776
(dp3777
I5
I1
ssg177
(dp3778
I0
I2
sI1
I1
sI2
I2
sI3
I1
sI4
I1
sI5
I1
sI7
I1
ssg179
(dp3779
I2
I1
ssg665
(dp3780
I9
I1
ssg379
(dp3781
I0
I2
sI1
I1
sI2
I1
sI4
I2
sI5
I1
sI6
I1
sI7
I1
sI8
I1
sI9
I1
ssg125
(dp3782
I3
I1
sI5
I1
ssS'gastric mucosa'
p3783
(dp3784
I9
I1
ssg185
(dp3785
I7
I1
ssg187
(dp3786
I2
I1
sI7
I2
ssg189
(dp3787
I2
I1
ssg1411
(dp3788
I3
I1
sI4
I1
sI6
I1
sI7
I1
ssg1615
(dp3789
I7
I1
ssg545
(dp3790
I6
I1
ssg197
(dp3791
I0
I2
sI1
I1
sI2
I1
sI6
I1
ssg211
(dp3792
I2
I1
sI6
I1
ssg703
(dp3793
I4
I1
ssg215
(dp3794
I5
I1
sI6
I1
ssg217
(dp3795
I1
I1
ssg2937
(dp3796
I8
I1
ssg221
(dp3797
I8
I2
sI2
I1
sI7
I2
ssS'b cell'
p3798
(dp3799
I9
I1
ssg1258
(dp3800
I7
I1
ssg227
(dp3801
I3
I1
sI6
I4
ssg3558
(dp3802
I8
I1
sI9
I1
sI5
I1
ssS'inks'
p3803
(dp3804
I3
I1
ssg403
(dp3805
I2
I1
ssg948
(dp3806
I2
I1
sI3
I1
ssg123
(dp3807
I2
I1
ssg407
(dp3808
I6
I1
ssg570
(dp3809
I9
I1
sI4
I1
ssg412
(dp3810
I6
I1
ssg721
(dp3811
I9
I1
ssg247
(dp3812
I8
I1
sI4
I1
ssg225
(dp3813
I4
I1
sI5
I1
ssg251
(dp3814
I3
I1
ssS'melena'
p3815
(dp3816
I1
I1
sssS'18'
p3817
(dp3818
g125
(dp3819
I5
I1
ssS'sodium'
p3820
(dp3821
I5
I1
ssg302
(dp3822
I3
I1
ssg59
(dp3823
I9
I1
ssS'red blood cell'
p3824
(dp3825
I9
I1
sI4
I1
ssg25
(dp3826
I6
I1
ssg531
(dp3827
I9
I1
ssg698
(dp3828
I7
I1
ssg9
(dp3829
I2
I1
sI4
I1
sI5
I2
sI6
I1
sI7
I1
ssS'epidemic'
p3830
(dp3831
I0
I1
ssg247
(dp3832
I0
I4
ssg1209
(dp3833
I6
I1
ssg187
(dp3834
I0
I1
sI9
I1
sI5
I1
sI6
I1
ssg225
(dp3835
I6
I1
ssg1974
(dp3836
I3
I1
ssg953
(dp3837
I8
I1
sI4
I1
ssg129
(dp3838
I9
I1
ssg886
(dp3839
I5
I2
ssg71
(dp3840
I2
I1
sI6
I1
ssS'nephrology'
p3841
(dp3842
I7
I1
ssg195
(dp3843
I4
I1
ssg197
(dp3844
I0
I6
sI5
I1
sI7
I1
ssg1121
(dp3845
I0
I4
ssg133
(dp3846
I2
I1
ssg3046
(dp3847
I0
I1
ssg1250
(dp3848
I3
I1
sI7
I1
ssg139
(dp3849
I3
I1
ssg141
(dp3850
I9
I1
ssS'flank pain'
p3851
(dp3852
I4
I1
ssg81
(dp3853
I9
I2
sI4
I1
ssS'urinalysis'
p3854
(dp3855
I0
I1
sI8
I1
sI3
I1
sI9
I1
ssg324
(dp3856
I4
I1
ssS'ribes'
p3857
(dp3858
I4
I1
ssg217
(dp3859
I5
I1
ssg37
(dp3860
I7
I1
ssg2100
(dp3861
I9
I1
ssS'reading'
p3862
(dp3863
I3
I1
ssg661
(dp3864
I0
I1
ssg221
(dp3865
I0
I1
ssS'physicians'
p3866
(dp3867
I0
I1
ssg223
(dp3868
I4
I1
ssg31
(dp3869
I3
I1
ssg95
(dp3870
I8
I1
sI1
I1
ssg33
(dp3871
I9
I1
ssg2078
(dp3872
I9
I1
ssg83
(dp3873
I2
I1
ssS'red blood cells'
p3874
(dp3875
I9
I1
ssg67
(dp3876
I6
I1
ssg99
(dp3877
I9
I1
ssg2071
(dp3878
I9
I1
sI4
I1
ssg633
(dp3879
I3
I1
sI7
I1
ssg151
(dp3880
I2
I1
ssg103
(dp3881
I2
I1
ssg235
(dp3882
I9
I1
sI3
I1
sI4
I1
sI7
I2
ssg237
(dp3883
I2
I1
ssg7
(dp3884
I1
I1
ssS'hematuria'
p3885
(dp3886
I8
I1
sI4
I1
ssS'oliguria'
p3887
(dp3888
I4
I1
ssg157
(dp3889
I3
I1
sI4
I1
sI6
I1
sI7
I1
sI8
I1
sI9
I2
ssS'kidney disease'
p3890
(dp3891
I0
I4
ssg239
(dp3892
I0
I1
ssg161
(dp3893
I0
I1
ssg829
(dp3894
I4
I1
ssS'glomerulonephritis'
p3895
(dp3896
I5
I2
ssg115
(dp3897
I3
I1
ssg2116
(dp3898
I9
I1
ssg1615
(dp3899
I5
I1
ssS'ranula'
p3900
(dp3901
I8
I1
ssg167
(dp3902
I0
I2
sI1
I1
sI7
I1
ssg55
(dp3903
I2
I1
ssg175
(dp3904
I6
I1
ssg177
(dp3905
I4
I1
ssg2037
(dp3906
I9
I2
sI4
I1
ssS'a protein'
p3907
(dp3908
I4
I1
ssg189
(dp3909
I7
I1
ssg803
(dp3910
I4
I1
ssg573
(dp3911
I0
I1
ssg227
(dp3912
I4
I1
sssS'30'
p3913
(dp3914
g1521
(dp3915
I0
I1
sI2
I2
sI6
I1
ssg3
(dp3916
I2
I1
ssS'erod'
p3917
(dp3918
I4
I1
ssg581
(dp3919
I0
I1
ssg265
(dp3920
I2
I1
ssg11
(dp3921
I5
I1
ssg884
(dp3922
I3
I1
ssS'aortic aneurysm'
p3923
(dp3924
I8
I1
ssg731
(dp3925
I0
I1
sI1
I1
ssS'arteriosclerosis'
p3926
(dp3927
I1
I1
ssg23
(dp3928
I8
I1
ssS'abdominal aortic aneurysms'
p3929
(dp3930
I8
I1
ssg211
(dp3931
I7
I1
ssg878
(dp3932
I9
I1
ssg278
(dp3933
I4
I1
sI6
I1
sI7
I1
ssS'disease heart'
p3934
(dp3935
I1
I1
ssg31
(dp3936
I0
I1
sI4
I1
ssg447
(dp3937
I8
I1
sI1
I1
sI5
I1
ssg449
(dp3938
I4
I1
ssg2933
(dp3939
I8
I1
ssg37
(dp3940
I8
I1
sI4
I1
sI5
I1
ssg249
(dp3941
I7
I1
ssg1543
(dp3942
I1
I2
sI2
I2
sI3
I1
sI5
I1
sI8
I1
sI9
I2
ssg1443
(dp3943
I0
I1
sI1
I1
ssS'stroke'
p3944
(dp3945
I9
I1
ssS'risk assessment'
p3946
(dp3947
I5
I1
ssS'cardiovascular diseases'
p3948
(dp3949
I7
I1
ssg1227
(dp3950
I8
I1
ssg55
(dp3951
I0
I1
sI5
I1
ssS'thighs'
p3952
(dp3953
I2
I1
ssg1043
(dp3954
I1
I1
ssg607
(dp3955
I0
I1
ssg2841
(dp3956
I8
I1
ssg300
(dp3957
I1
I1
ssg2047
(dp3958
I1
I1
ssg59
(dp3959
I0
I2
sI1
I4
sI2
I2
sI3
I1
sI5
I2
sI7
I2
sI8
I3
sI9
I2
ssg1317
(dp3960
I0
I1
ssg65
(dp3961
I5
I1
ssS'vascular diseases'
p3962
(dp3963
I7
I1
ssg67
(dp3964
I8
I1
sI9
I1
sI3
I1
sI4
I1
ssg71
(dp3965
I8
I1
ssg1904
(dp3966
I2
I1
ssg315
(dp3967
I2
I1
ssg1559
(dp3968
I7
I1
ssg79
(dp3969
I5
I1
ssg87
(dp3970
I5
I1
ssg95
(dp3971
I8
I1
sI9
I1
sI5
I1
sI6
I1
sI7
I1
ssg628
(dp3972
I2
I3
sI3
I1
sI4
I1
sI7
I1
ssg99
(dp3973
I1
I1
sI4
I2
sI5
I1
sI6
I1
sI7
I1
ssS'abdominal aortic aneurysm'
p3974
(dp3975
I8
I1
ssg633
(dp3976
I9
I1
sI5
I1
ssg2818
(dp3977
I7
I1
ssS'respiratory sound'
p3978
(dp3979
I3
I1
ssS'microvascular angina'
p3980
(dp3981
I7
I1
ssg3617
(dp3982
I2
I1
ssg115
(dp3983
I0
I1
sI4
I1
ssg1136
(dp3984
I5
I2
sI7
I2
ssg495
(dp3985
I4
I1
ssg640
(dp3986
I3
I1
ssg1414
(dp3987
I5
I1
sI7
I1
ssg644
(dp3988
I0
I1
sI1
I1
sI9
I1
ssg1409
(dp3989
I5
I1
sI7
I1
ssg503
(dp3990
I0
I1
ssg1579
(dp3991
I8
I1
ssg812
(dp3992
I8
I1
ssS'feet'
p3993
(dp3994
I2
I1
ssg1209
(dp3995
I3
I2
ssg654
(dp3996
I3
I1
ssg2891
(dp3997
I8
I1
ssg139
(dp3998
I3
I1
sI4
I1
ssg2895
(dp3999
I8
I1
ssg513
(dp4000
I7
I1
ssg817
(dp4001
I2
I1
sI7
I1
ssg661
(dp4002
I8
I1
ssg523
(dp4003
I7
I1
ssS'wart'
p4004
(dp4005
I8
I1
ssg1593
(dp4006
I6
I1
ssS'disease sc'
p4007
(dp4008
I8
I1
ssg2106
(dp4009
I1
I1
ssg674
(dp4010
I0
I1
ssg157
(dp4011
I0
I2
sI1
I2
sI3
I1
sI4
I2
sI5
I2
sI6
I2
sI7
I1
sI8
I1
sI9
I2
ssg159
(dp4012
I9
I1
sI5
I1
sI7
I1
ssg680
(dp4013
I3
I1
ssg825
(dp4014
I8
I1
ssg167
(dp4015
I5
I1
ssg768
(dp4016
I8
I1
ssg978
(dp4017
I6
I1
ssg77
(dp4018
I7
I1
ssg177
(dp4019
I1
I1
sI3
I1
ssg1604
(dp4020
I8
I1
ssg983
(dp4021
I0
I1
ssg379
(dp4022
I0
I1
sI1
I1
sI4
I2
sI5
I1
sI6
I1
sI7
I1
sI8
I2
sI9
I1
ssg181
(dp4023
I0
I1
sI1
I1
sI5
I1
sI7
I1
ssg2377
(dp4024
I3
I1
ssg187
(dp4025
I3
I3
sI5
I1
ssg189
(dp4026
I8
I1
ssS'graft versus host disease'
p4027
(dp4028
I4
I1
ssS'carotid artery disease'
p4029
(dp4030
I1
I1
ssg191
(dp4031
I5
I1
ssS'muscle pain'
p4032
(dp4033
I2
I1
ssg545
(dp4034
I4
I1
ssg2927
(dp4035
I4
I1
ssS'aortic aneurysms'
p4036
(dp4037
I8
I1
ssg1250
(dp4038
I9
I1
sI5
I1
ssg197
(dp4039
I0
I1
sI1
I1
sI9
I1
sI5
I1
sI7
I1
ssg27
(dp4040
I1
I1
sI2
I1
ssg703
(dp4041
I0
I1
ssg217
(dp4042
I7
I1
ssg221
(dp4043
I8
I1
ssg225
(dp4044
I3
I1
ssg227
(dp4045
I0
I1
sI2
I3
sI3
I1
sI4
I1
sI6
I1
sI7
I2
sI8
I1
sI9
I1
ssS'respiratory sounds'
p4046
(dp4047
I3
I1
ssS'peripheral artery disease'
p4048
(dp4049
I2
I2
ssg233
(dp4050
I9
I1
sI3
I1
sI5
I1
sI7
I1
ssg235
(dp4051
I1
I1
sI5
I1
sI9
I1
ssg570
(dp4052
I0
I1
ssg239
(dp4053
I9
I1
sI5
I1
sI7
I1
ssg1739
(dp4054
I3
I1
ssS'carotid artery'
p4055
(dp4056
I1
I1
sI9
I1
ssg421
(dp4057
I2
I1
ssg43
(dp4058
I9
I1
ssg243
(dp4059
I8
I1
sI4
I1
ssS'sclerosis'
p4060
(dp4061
I1
I1
ssg247
(dp4062
I0
I1
sI1
I4
sI2
I2
sI4
I1
sI5
I1
sI6
I1
sI7
I1
sI8
I2
sI9
I1
ssg575
(dp4063
I1
I1
ssg251
(dp4064
I2
I1
ssg1647
(dp4065
I8
I1
sI1
I1
sI9
I1
sss.