(dp0
S'24'
p1
(dp2
S'cramp'
p3
(dp4
I0
I1
ssS'gastritis'
p5
(dp6
I0
I1
ssS'bleeding'
p7
(dp8
I7
I1
ssS'abdominal pain'
p9
(dp10
I1
I1
sI2
I1
sI9
I1
ssS'disease'
p11
(dp12
I0
I1
ssS'arc'
p13
(dp14
I4
I1
ssS'hypertension'
p15
(dp16
I3
I1
ssS'ulcer'
p17
(dp18
I0
I1
ssS'aids'
p19
(dp20
I3
I1
ssS'hemorrhage'
p21
(dp22
I6
I1
ssS'dyspnea'
p23
(dp24
I4
I1
ssS'head injury'
p25
(dp26
I9
I1
sI7
I1
ssS'death'
p27
(dp28
I8
I1
ssS'edema'
p29
(dp30
I3
I1
ssS'rash'
p31
(dp32
I7
I1
ssS'trauma'
p33
(dp34
I8
I2
sI9
I1
sI6
I2
ssS'sid'
p35
(dp36
I9
I1
sI2
I1
ssS'tic'
p37
(dp38
I6
I1
ssS'fever'
p39
(dp40
I4
I1
ssS'pain'
p41
(dp42
I1
I1
sI2
I2
sI4
I2
sI9
I2
sI7
I1
ssS'emergency'
p43
(dp44
I8
I1
sI9
I1
sI2
I1
ssS'burn'
p45
(dp46
I7
I1
ssS'rib fractures'
p47
(dp48
I7
I1
ssS'coma'
p49
(dp50
I0
I1
ssS'duodenal ulcer'
p51
(dp52
I0
I1
ssS'rupture'
p53
(dp54
I8
I1
sI9
I1
ssS'chest pain'
p55
(dp56
I9
I1
ssS'hypotension'
p57
(dp58
I4
I1
ssS'abdominal injuries'
p59
(dp60
I6
I1
ssS'splenic rupture'
p61
(dp62
I9
I1
ssS'shock'
p63
(dp64
I8
I1
ssS'sti'
p65
(dp66
I3
I1
ssS'hyperlipidemia'
p67
(dp68
I3
I1
ssS'rib fracture'
p69
(dp70
I7
I1
ssS'comatose'
p71
(dp72
I0
I1
ssS'headache'
p73
(dp74
I5
I1
sssS'25'
p75
(dp76
g55
(dp77
I3
I1
ssg39
(dp78
I0
I2
ssg41
(dp79
I8
I1
sI2
I1
sI3
I1
ssg43
(dp80
I3
I1
sI6
I1
ssS'shortness of breath'
p81
(dp82
I3
I1
ssS'nausea'
p83
(dp84
I8
I1
sI3
I1
ssg65
(dp85
I4
I1
ssS'vomiting'
p86
(dp87
I3
I1
ssg11
(dp88
I1
I1
sI4
I1
ssg23
(dp89
I0
I1
ssg13
(dp90
I0
I1
ssg15
(dp91
I0
I1
sI3
I1
sI5
I1
ssS'rickets'
p92
(dp93
I4
I1
ssg35
(dp94
I8
I1
sI7
I1
ssS'obesity'
p95
(dp96
I0
I1
ssS'cough'
p97
(dp98
I0
I2
ssg37
(dp99
I1
I1
sI4
I1
sssS'26'
p100
(dp101
S'yellow fever'
p102
(dp103
I2
I1
ssg39
(dp104
I2
I1
ssS'men i'
p105
(dp106
I5
I1
ssS'diseases'
p107
(dp108
I1
I1
ssS'malaria'
p109
(dp110
I2
I3
sI3
I1
sI6
I2
sI7
I1
sI8
I1
sI9
I1
ssS'hives'
p111
(dp112
I9
I1
ssS'allergy'
p113
(dp114
I2
I1
ssS'diarrhea'
p115
(dp116
I5
I1
ssg11
(dp117
I1
I1
ssg65
(dp118
I2
I1
sI3
I1
ssS't all'
p119
(dp120
I3
I1
ssg13
(dp121
I9
I1
ssS'stds'
p122
(dp123
I9
I1
sssS'27'
p124
(dp125
S'crohns disease'
p126
(dp127
I3
I1
ssS'tics'
p128
(dp129
I0
I1
ssg41
(dp130
I8
I1
sI6
I1
ssg35
(dp131
I2
I1
ssg43
(dp132
I7
I1
ssS'colonic polyps'
p133
(dp134
I1
I1
ssS'colonic polyp'
p135
(dp136
I1
I1
ssS'polyp'
p137
(dp138
I0
I3
sI1
I5
sI2
I1
sI3
I1
sI4
I1
sI5
I1
ssS'overweight'
p139
(dp140
I6
I1
ssg65
(dp141
I0
I1
ssg11
(dp142
I3
I1
sI7
I1
ssS'adenoma'
p143
(dp144
I2
I1
sI5
I1
ssg45
(dp145
I9
I1
ssS'noma'
p146
(dp147
I2
I1
sI5
I1
ssS'inflammatory bowel disease'
p148
(dp149
I7
I1
ssS'nomas'
p150
(dp151
I2
I1
ssg37
(dp152
I0
I1
ssg55
(dp153
I8
I1
ssS'hypercholesterolemia'
p154
(dp155
I4
I1
ssS'adenomas'
p156
(dp157
I2
I1
ssS'polyps'
p158
(dp159
I0
I3
sI1
I4
sI2
I1
sI3
I1
sI4
I1
sI5
I1
sssS'20'
p160
(dp161
g55
(dp162
I8
I1
sI9
I1
ssg27
(dp163
I4
I1
sI5
I1
ssg41
(dp164
I0
I1
sI1
I1
sI5
I1
sI6
I1
sI8
I1
sI9
I2
ssg43
(dp165
I1
I1
ssS'paralysis'
p166
(dp167
I6
I1
ssg9
(dp168
I0
I1
sI1
I1
sI5
I1
ssg45
(dp169
I6
I1
ssg31
(dp170
I2
I3
sI3
I2
sI4
I1
ssS'multiple injuries'
p171
(dp172
I7
I2
ssg13
(dp173
I1
I1
ssS'appendicitis'
p174
(dp175
I1
I1
ssg33
(dp176
I6
I1
ssS'seizure'
p177
(dp178
I9
I1
ssg105
(dp179
I6
I1
sI7
I1
ssg35
(dp180
I8
I1
ssS'sickle cell anemia'
p181
(dp182
I1
I1
ssg95
(dp183
I4
I1
ssg37
(dp184
I1
I1
sI9
I2
ssg53
(dp185
I1
I1
ssS'anemia'
p186
(dp187
I1
I1
sssS'21'
p188
(dp189
S'systemic lupus erythematosus'
p190
(dp191
I3
I1
sI4
I1
ssg39
(dp192
I8
I1
ssg41
(dp193
I9
I1
sI7
I1
ssS'skin rash'
p194
(dp195
I7
I1
ssS'chronic renal failure'
p196
(dp197
I3
I1
ssS'lupus nephritis'
p198
(dp199
I7
I1
ssS'arthralgia'
p200
(dp201
I0
I2
sI1
I1
sI2
I1
sI4
I1
sI6
I1
ssS'gout'
p202
(dp203
I9
I1
ssg65
(dp204
I0
I1
sI9
I1
sI7
I1
ssg31
(dp205
I0
I1
sI1
I1
sI2
I1
sI3
I1
sI4
I1
sI5
I1
sI6
I1
sI7
I1
sI8
I1
sI9
I1
ssS'joint pains'
p206
(dp207
I7
I1
ssS'arthralgias'
p208
(dp209
I0
I2
sI1
I1
sI2
I1
sI4
I1
sI6
I1
ssg13
(dp210
I6
I1
ssS'fatigue'
p211
(dp212
I0
I1
sI1
I1
sI2
I1
sI6
I1
sI7
I1
sI8
I1
ssS'proteinuria'
p213
(dp214
I0
I1
sI1
I1
sI3
I1
ssS'joint pain'
p215
(dp216
I7
I1
ssS'nephritis'
p217
(dp218
I7
I1
ssg37
(dp219
I4
I1
ssS'erythema'
p220
(dp221
I3
I1
sI4
I1
sssS'22'
p222
(dp223
S'pain abdominal'
p224
(dp225
I5
I1
ssg9
(dp226
I1
I1
sI2
I1
sI3
I1
sI4
I1
sI6
I1
sI8
I1
ssS'leukocytosis'
p227
(dp228
I3
I1
ssS'peritonitis'
p229
(dp230
I4
I1
ssS'gallstone'
p231
(dp232
I7
I1
ssg17
(dp233
I3
I1
sI7
I1
ssS'scar'
p234
(dp235
I8
I1
sI7
I1
ssS'abscess'
p236
(dp237
I4
I1
ssS'peptic ulcer'
p238
(dp239
I3
I1
ssS'pelvic pain'
p240
(dp241
I9
I1
ssg115
(dp242
I2
I1
ssg174
(dp243
I0
I2
sI1
I4
sI2
I2
sI3
I1
sI4
I2
sI5
I2
sI6
I2
sI8
I1
sI9
I1
ssS'inflammation'
p244
(dp245
I1
I1
ssg35
(dp246
I0
I1
sI5
I1
ssg37
(dp247
I8
I1
sI3
I1
ssg39
(dp248
I8
I1
ssg41
(dp249
I0
I1
sI1
I2
sI2
I1
sI3
I6
sI4
I1
sI5
I1
sI6
I1
sI8
I2
sI9
I2
ssS'infection'
p250
(dp251
I3
I1
ssg86
(dp252
I0
I1
sI1
I1
sI2
I2
sI6
I1
ssg51
(dp253
I7
I1
ssg53
(dp254
I4
I1
ssg83
(dp255
I0
I1
sI1
I1
sI2
I1
sI6
I1
ssg65
(dp256
I8
I1
ssS'gallstones'
p257
(dp258
I7
I1
ssg11
(dp259
I7
I1
sssS'23'
p260
(dp261
S'oral manifestation'
p262
(dp263
I9
I1
ssg39
(dp264
I0
I1
sI9
I2
sI3
I1
sI7
I1
ssS'pleural effusion'
p265
(dp266
I3
I1
ssg37
(dp267
I9
I2
ssg43
(dp268
I8
I1
ssg81
(dp269
I1
I1
sI3
I1
sI4
I1
sI5
I2
sI6
I1
sI8
I1
ssg83
(dp270
I8
I1
ssg11
(dp271
I9
I1
ssg107
(dp272
I9
I1
ssg86
(dp273
I8
I1
ssg119
(dp274
I3
I1
ssS'pneumonia'
p275
(dp276
I0
I2
sI7
I1
ssg55
(dp277
I8
I1
sI9
I1
ssg15
(dp278
I8
I1
ssS'oral manifestations'
p279
(dp280
I9
I1
ssg35
(dp281
I9
I1
sI3
I1
ssg41
(dp282
I8
I1
sI9
I1
sI3
I1
ssS'tachycardia'
p283
(dp284
I3
I1
ssg97
(dp285
I0
I1
sI1
I1
sI2
I1
sI3
I1
sI4
I2
sI5
I2
sI6
I1
sI7
I2
sI9
I3
ssS'tachypnea'
p286
(dp287
I3
I1
sI5
I1
ssg23
(dp288
I0
I1
sI9
I1
sI3
I1
sssS'28'
p289
(dp290
g37
(dp291
I7
I1
ssg7
(dp292
I9
I1
sI2
I2
ssS'hyperprolactinemia'
p293
(dp294
I0
I1
sI2
I1
ssg65
(dp295
I2
I1
sI6
I1
ssS'uterine bleeding'
p296
(dp297
I2
I2
ssg111
(dp298
I6
I1
ssg13
(dp299
I2
I1
sI6
I1
ssS'amenorrhea'
p300
(dp301
I0
I1
sI8
I1
ssS'diabetes mellitus'
p302
(dp303
I1
I1
ssg234
(dp304
I6
I1
ssS'type 1 diabetes mellitus'
p305
(dp306
I1
I1
ssS'galactorrhea'
p307
(dp308
I0
I1
sI5
I4
sI7
I1
sssS'29'
p309
(dp310
S'vascular disease'
p311
(dp312
I3
I1
ssS'heart disease'
p313
(dp314
I1
I1
ssg105
(dp315
I8
I1
ssS'broken bones'
p316
(dp317
I9
I1
ssS'osteoporotic fracture'
p318
(dp319
I0
I1
ssS'endometriosis'
p320
(dp321
I5
I1
ssS'cardiovascular disease'
p322
(dp323
I3
I1
ssS'broken bone'
p324
(dp325
I9
I2
ssg65
(dp326
I9
I1
sI3
I1
ssg11
(dp327
I1
I2
sI3
I1
sI9
I1
ssS'osteoporotic fractures'
p328
(dp329
I0
I1
ssg15
(dp330
I1
I1
sI2
I2
sI3
I1
sI5
I1
sI7
I1
sI8
I1
ssS'coronary heart disease'
p331
(dp332
I1
I1
ssg37
(dp333
I8
I2
sI0
I1
ssS'fibroids'
p334
(dp335
I5
I1
ssS'fibroid'
p336
(dp337
I5
I1
ssS'high blood pressure'
p338
(dp339
I3
I1
sI5
I1
ssS'osteoporosis'
p340
(dp341
I1
I1
sI3
I1
sI4
I1
sI7
I1
sI8
I1
sI9
I3
sssS'1'
p342
(dp343
g9
(dp344
I8
I1
sI2
I1
ssS'aneurysms'
p345
(dp346
I7
I1
ssg11
(dp347
I5
I1
sI7
I1
ssg15
(dp348
I0
I1
sI1
I1
sI2
I1
sI3
I1
sI7
I1
sI9
I1
ssg302
(dp349
I1
I1
ssS'heart failure'
p350
(dp351
I7
I1
ssS'lower back pain'
p352
(dp353
I8
I1
sI5
I1
ssS'stenosis'
p354
(dp355
I5
I2
ssg37
(dp356
I2
I2
ssg39
(dp357
I2
I1
ssg41
(dp358
I0
I1
sI1
I1
sI2
I2
sI3
I1
sI4
I5
sI5
I3
sI6
I1
sI7
I1
sI8
I3
sI9
I2
ssg43
(dp359
I7
I1
ssS'back pain'
p360
(dp361
I8
I1
sI2
I1
sI3
I1
sI5
I1
sI7
I1
ssg35
(dp362
I8
I1
ssg55
(dp363
I0
I1
sI1
I1
sI4
I5
sI6
I1
sI9
I2
ssg283
(dp364
I2
I1
ssg83
(dp365
I0
I1
ssS'pain back'
p366
(dp367
I2
I1
ssg81
(dp368
I3
I1
ssg65
(dp369
I9
I1
sI2
I2
sI4
I1
ssS'aneurysm'
p370
(dp371
I7
I1
ssS'spinal stenosis'
p372
(dp373
I5
I2
ssg95
(dp374
I0
I1
sI1
I1
sI4
I1
sI6
I1
sI9
I1
ssS'coronary artery disease'
p375
(dp376
I7
I1
ssS'chronic disease'
p377
(dp378
I5
I1
sssS'3'
p379
(dp380
S'osteosarcoma'
p381
(dp382
I2
I1
ssS'myositis'
p383
(dp384
I2
I1
ssS'metastasis'
p385
(dp386
I9
I1
ssS'multiple pulmonary nodules'
p387
(dp388
I0
I1
ssg119
(dp389
I7
I1
ssg13
(dp390
I2
I1
sI7
I1
ssS'sarcoma'
p391
(dp392
I2
I1
ssg146
(dp393
I7
I1
ssS'dermatomyositis'
p394
(dp395
I2
I1
ssS'multiple pulmonary nodule'
p396
(dp397
I0
I1
ssS'atelectasis'
p398
(dp399
I9
I1
ssg37
(dp400
I0
I2
sI2
I1
sI3
I1
ssS'solitary pulmonary nodule'
p401
(dp402
I8
I2
sI1
I2
sI4
I2
sI0
I1
ssg41
(dp403
I9
I1
ssS'carcinoma'
p404
(dp405
I7
I1
ssS'alveolar carcinoma'
p406
(dp407
I7
I1
ssg49
(dp408
I2
I1
ssS'bronchioloalveolar carcinoma'
p409
(dp410
I7
I1
ssS'tumors'
p411
(dp412
I7
I1
ssg65
(dp413
I3
I3
ssS'tumor'
p414
(dp415
I7
I1
ssS'metastases'
p416
(dp417
I0
I1
sI9
I1
sssS'2'
p418
(dp419
g3
(dp420
I9
I1
ssg29
(dp421
I0
I1
ssg9
(dp422
I9
I1
ssS'pulmonary disease'
p423
(dp424
I5
I1
ssS'pulmonary edema'
p425
(dp426
I0
I1
ssg11
(dp427
I5
I2
ssg13
(dp428
I2
I1
sI4
I1
ssS'obstructive pulmonary disease'
p429
(dp430
I5
I1
ssg23
(dp431
I2
I1
ssg97
(dp432
I8
I1
sI1
I1
sI2
I1
sI6
I1
sI7
I1
ssg37
(dp433
I0
I1
sI5
I1
ssg115
(dp434
I9
I1
sI3
I1
sI4
I1
sI5
I1
ssg31
(dp435
I3
I1
ssg35
(dp436
I8
I1
ssS'infectious disease'
p437
(dp438
I5
I1
ssg73
(dp439
I3
I1
ssg39
(dp440
I1
I1
sI2
I2
sI3
I2
sI6
I1
sI7
I1
sI8
I1
ssg41
(dp441
I9
I1
ssg107
(dp442
I5
I1
ssS'cardiomegaly'
p443
(dp444
I4
I1
ssg86
(dp445
I9
I1
sI4
I1
ssS'infectious diseases'
p446
(dp447
I5
I1
ssg83
(dp448
I9
I1
ssg65
(dp449
I0
I1
sI8
I1
ssS'chronic obstructive pulmonary disease'
p450
(dp451
I5
I1
ssS'chills'
p452
(dp453
I7
I1
sssS'5'
p454
(dp455
S'embolism'
p456
(dp457
I9
I2
ssS'weight loss'
p458
(dp459
I4
I1
ssg11
(dp460
I2
I1
sI4
I1
ssg15
(dp461
I2
I1
ssS'signs and symptoms'
p462
(dp463
I2
I1
ssg302
(dp464
I0
I1
sI2
I1
ssg23
(dp465
I5
I1
sI7
I1
ssS'syndrome'
p466
(dp467
I2
I1
ssg293
(dp468
I1
I1
ssS'pulmonary embolism'
p469
(dp470
I9
I2
ssg35
(dp471
I9
I1
ssS'headaches'
p472
(dp473
I1
I1
ssg73
(dp474
I1
I1
ssg39
(dp475
I7
I1
ssg41
(dp476
I1
I1
sI5
I1
sI6
I2
sI9
I1
ssg43
(dp477
I2
I1
ssg86
(dp478
I7
I1
ssg55
(dp479
I1
I1
sI5
I1
ssg211
(dp480
I7
I1
ssg81
(dp481
I0
I1
sI1
I1
sI2
I1
sI8
I1
sI9
I1
ssg65
(dp482
I5
I1
ssS'acute coronary syndrome'
p483
(dp484
I2
I1
ssS'nocturia'
p485
(dp486
I1
I1
ssS'type 2 diabetes mellitus'
p487
(dp488
I2
I1
ssS'sickle cell disease'
p489
(dp490
I4
I1
sssS'4'
p491
(dp492
S'erythema multiforme'
p493
(dp494
I8
I2
ssg39
(dp495
I0
I1
sI1
I1
sI2
I1
sI4
I2
sI7
I1
sI8
I1
ssg13
(dp496
I4
I1
sI5
I2
sI7
I1
ssg115
(dp497
I2
I1
ssg11
(dp498
I0
I4
sI9
I3
sI2
I2
sI3
I2
sI1
I2
ssg31
(dp499
I2
I1
ssg65
(dp500
I1
I2
sI2
I1
sI5
I1
ssg244
(dp501
I7
I1
ssS'conjunctivitis'
p502
(dp503
I2
I1
sI4
I1
sI7
I1
ssg128
(dp504
I1
I1
ssg220
(dp505
I8
I2
ssS'kawasaki disease'
p506
(dp507
I0
I3
sI9
I3
sI2
I2
sI3
I2
sI1
I1
ssg23
(dp508
I4
I1
ssS'hypoalbuminemia'
p509
(dp510
I2
I1
ssg37
(dp511
I8
I1
sI1
I1
sI3
I1
sssS'7'
p512
(dp513
S'sleep disorders'
p514
(dp515
I4
I1
ssg43
(dp516
I3
I1
ssg65
(dp517
I4
I1
ssg11
(dp518
I6
I1
ssS'sleep disorder'
p519
(dp520
I4
I1
ssg35
(dp521
I5
I1
sI7
I1
ssg302
(dp522
I0
I1
ssg37
(dp523
I2
I1
sssS'6'
p524
(dp525
S'necrobiosis lipoidica'
p526
(dp527
I2
I1
ssS'constipation'
p528
(dp529
I7
I1
ssS'ulcers'
p530
(dp531
I0
I2
ssg17
(dp532
I0
I3
ssg19
(dp533
I1
I1
ssg302
(dp534
I3
I1
ssg31
(dp535
I1
I1
sI5
I1
ssg35
(dp536
I0
I1
ssS'polyneuropathy'
p537
(dp538
I8
I1
ssg37
(dp539
I9
I1
ssg39
(dp540
I9
I1
sI2
I1
sI4
I1
ssg41
(dp541
I3
I3
sI4
I1
sI5
I1
sI6
I1
sI7
I1
sI9
I1
ssg86
(dp542
I9
I1
ssg55
(dp543
I9
I1
ssg220
(dp544
I1
I1
sI2
I1
ssS'skin ulcers'
p545
(dp546
I0
I2
ssS'blister'
p547
(dp548
I0
I1
ssS'necrobiosis'
p549
(dp550
I2
I1
ssg194
(dp551
I5
I1
ssS'skin ulcer'
p552
(dp553
I0
I2
ssg65
(dp554
I1
I1
sI2
I1
sI7
I1
ssg452
(dp555
I4
I1
sssS'9'
p556
(dp557
S'melanocytic nevus'
p558
(dp559
I5
I1
ssS'hyperplasia'
p560
(dp561
I4
I1
ssg41
(dp562
I7
I1
ssg43
(dp563
I9
I1
ssS'lentigines'
p564
(dp565
I4
I1
ssS'nevi'
p566
(dp567
I4
I1
ssg411
(dp568
I2
I2
sI3
I1
sI6
I1
ssg65
(dp569
I9
I1
sI6
I1
ssg31
(dp570
I1
I2
ssg414
(dp571
I2
I2
sI3
I2
sI6
I1
ssS'shoulder pain'
p572
(dp573
I7
I1
ssS'intradermal nevi'
p574
(dp575
I4
I1
ssg302
(dp576
I7
I1
ssS'nevus'
p577
(dp578
I4
I1
sI5
I1
ssS'lipomas'
p579
(dp580
I2
I1
ssS'lipoma'
p581
(dp582
I2
I1
ssg37
(dp583
I8
I1
sI9
I1
sI5
I1
sssS'8'
p584
(dp585
S'seizures'
p586
(dp587
I8
I2
ssS'dysarthria'
p588
(dp589
I1
I1
ssg41
(dp590
I3
I1
ssg107
(dp591
I8
I1
ssS'toxoplasmosis'
p592
(dp593
I4
I1
ssg29
(dp594
I9
I1
ssS'confusion'
p595
(dp596
I1
I1
ssS'alzheimer disease'
p597
(dp598
I9
I1
ssg65
(dp599
I8
I1
sI4
I1
sI5
I1
ssg177
(dp600
I8
I2
ssg11
(dp601
I8
I1
sI9
I2
sI2
I2
sI7
I2
ssS'ataxia'
p602
(dp603
I8
I1
ssg13
(dp604
I3
I1
ssg15
(dp605
I3
I1
sI4
I1
ssS'amnesia'
p606
(dp607
I1
I1
ssS'liver disease'
p608
(dp609
I9
I1
ssS'atrophy'
p610
(dp611
I0
I1
sI1
I1
sI2
I1
sI8
I1
ssS'dementia'
p612
(dp613
I2
I1
ssg37
(dp614
I0
I2
sI2
I2
sI3
I1
sI4
I1
sI5
I2
sI6
I1
sI8
I1
sssS'11'
p615
(dp616
g528
(dp617
I1
I1
ssg51
(dp618
I0
I1
ssg29
(dp619
I2
I2
ssg11
(dp620
I0
I1
ssg13
(dp621
I8
I2
ssg17
(dp622
I0
I1
ssg19
(dp623
I2
I1
ssg146
(dp624
I8
I1
ssS'asthma'
p625
(dp626
I6
I1
ssg33
(dp627
I9
I1
sI2
I1
sI3
I1
sI5
I1
sI7
I1
ssg73
(dp628
I7
I1
ssg39
(dp629
I2
I1
ssg41
(dp630
I3
I1
sI5
I1
sI6
I1
sI7
I1
sI8
I1
sI9
I1
ssg43
(dp631
I0
I1
ssg45
(dp632
I9
I1
ssg250
(dp633
I4
I1
ssg55
(dp634
I3
I1
sI5
I1
ssS'malignant lymphoma'
p635
(dp636
I5
I1
ssS'tremor'
p637
(dp638
I7
I1
ssS'lymphoma'
p639
(dp640
I5
I1
ssg57
(dp641
I9
I1
ssS'infections'
p642
(dp643
I4
I1
ssg65
(dp644
I1
I2
sI2
I1
sI3
I1
ssg404
(dp645
I8
I1
ssg452
(dp646
I2
I1
sssS'10'
p647
(dp648
g345
(dp649
I9
I1
ssg11
(dp650
I4
I1
sI6
I1
ssg13
(dp651
I0
I1
sI3
I1
ssg15
(dp652
I7
I1
ssg17
(dp653
I4
I1
ssg41
(dp654
I8
I1
sI1
I2
ssg23
(dp655
I7
I1
ssS'pseudoaneurysms'
p656
(dp657
I9
I1
ssS'syncope'
p658
(dp659
I7
I1
ssg350
(dp660
I5
I1
ssS'myocardial infarct'
p661
(dp662
I0
I1
ssS'infarction'
p663
(dp664
I0
I1
ssS'gangrene'
p665
(dp666
I4
I1
ssS'ischemia'
p667
(dp668
I8
I1
sI7
I1
ssg37
(dp669
I0
I1
sI1
I1
sI3
I1
sI4
I1
sI7
I1
ssS'pseudoaneurysm'
p670
(dp671
I9
I1
ssg81
(dp672
I5
I1
ssg65
(dp673
I0
I1
sI1
I1
sI2
I1
sI8
I1
sI7
I1
ssg370
(dp674
I9
I2
ssS'myocardial infarction'
p675
(dp676
I0
I1
ssg375
(dp677
I4
I1
ssS'heart attack'
p678
(dp679
I0
I1
sssS'13'
p680
(dp681
S'neck pain'
p682
(dp683
I1
I1
ssg105
(dp684
I4
I1
ssg456
(dp685
I9
I2
sI3
I1
sI4
I2
ssg458
(dp686
I1
I1
ssg13
(dp687
I6
I1
ssg19
(dp688
I1
I1
ssg661
(dp689
I6
I1
ssg469
(dp690
I9
I2
sI3
I1
sI4
I2
ssg35
(dp691
I4
I1
ssg283
(dp692
I0
I1
sI8
I1
sI3
I1
sI6
I1
ssg286
(dp693
I0
I1
sI8
I1
sI2
I1
ssg73
(dp694
I1
I2
ssg39
(dp695
I0
I1
sI1
I1
sI6
I1
ssg41
(dp696
I0
I1
sI1
I1
sI9
I1
sI6
I1
sI8
I1
ssS'embolism pulmonary'
p697
(dp698
I4
I1
ssg663
(dp699
I6
I1
ssg250
(dp700
I5
I1
ssg55
(dp701
I8
I1
sI9
I1
sI6
I1
ssg211
(dp702
I8
I1
ssg220
(dp703
I0
I1
ssg97
(dp704
I6
I1
sI7
I1
ssg81
(dp705
I0
I1
sI1
I1
sI2
I1
sI3
I1
sI6
I1
sI7
I1
sI8
I1
sI9
I1
ssg65
(dp706
I8
I1
sI1
I1
sI9
I2
ssg275
(dp707
I5
I3
ssS'cyanosis'
p708
(dp709
I0
I1
ssS'respiratory tract infection'
p710
(dp711
I5
I1
ssg675
(dp712
I6
I1
ssg37
(dp713
I9
I4
sI4
I1
sssS'12'
p714
(dp715
S'carpal tunnel syndrome'
p716
(dp717
I5
I1
ssg119
(dp718
I7
I1
ssS'lethargy'
p719
(dp720
I4
I1
ssg466
(dp721
I8
I1
sI5
I1
ssS'thyroid disease'
p722
(dp723
I7
I1
ssS'alopecia'
p724
(dp725
I6
I1
ssg528
(dp726
I0
I1
sI1
I1
sI2
I1
sI3
I1
sI5
I2
ssg65
(dp727
I0
I1
sI1
I1
sI2
I2
sI3
I1
sI5
I2
sI7
I1
ssg11
(dp728
I7
I1
ssS'gilberts syndrome'
p729
(dp730
I8
I1
ssg13
(dp731
I1
I1
ssS'hypothyroidism'
p732
(dp733
I8
I1
sI9
I2
sI4
I1
sI5
I1
ssS'muscle weakness'
p734
(dp735
I6
I1
ssS'tremors'
p736
(dp737
I8
I1
ssg637
(dp738
I8
I1
ssg211
(dp739
I0
I2
sI1
I1
sI2
I1
sI3
I1
sI7
I1
sI8
I2
sI9
I1
ssS'weight gain'
p740
(dp741
I0
I1
sI1
I1
sI2
I1
sI5
I1
sI7
I1
sI8
I1
sI9
I1
ssg41
(dp742
I8
I1
ssS'dizziness'
p743
(dp744
I8
I1
ssg37
(dp745
I9
I1
sI5
I1
sssS'15'
p746
(dp747
g3
(dp748
I1
I1
sI7
I1
ssS'dyspareunia'
p749
(dp750
I5
I1
ssg7
(dp751
I7
I1
ssg9
(dp752
I8
I1
sI1
I1
sI9
I1
ssg336
(dp753
I0
I1
sI3
I1
sI4
I1
sI5
I1
ssg65
(dp754
I0
I1
sI3
I1
sI4
I1
ssg119
(dp755
I5
I1
ssg13
(dp756
I8
I1
sI4
I1
sI5
I1
ssg334
(dp757
I5
I1
ssg27
(dp758
I2
I1
ssS'septic abortion'
p759
(dp760
I7
I1
ssg37
(dp761
I0
I1
sI3
I1
sI4
I1
sI7
I1
ssg39
(dp762
I4
I1
ssg41
(dp763
I8
I3
sI1
I1
sI9
I1
sI5
I1
sI7
I1
ssg250
(dp764
I5
I1
ssg55
(dp765
I8
I1
ssS'molar pregnancy'
p766
(dp767
I1
I1
ssg81
(dp768
I8
I1
ssg63
(dp769
I7
I1
ssg11
(dp770
I6
I1
ssg300
(dp771
I0
I1
sI3
I1
ssS'cyst'
p772
(dp773
I0
I1
sI3
I1
sI4
I1
sssS'14'
p774
(dp775
g377
(dp776
I8
I1
ssg682
(dp777
I5
I1
ssg39
(dp778
I5
I1
ssg41
(dp779
I5
I1
ssg43
(dp780
I7
I1
ssg97
(dp781
I6
I2
sI7
I1
ssS'critical illness'
p782
(dp783
I4
I1
ssg595
(dp784
I4
I2
ssg29
(dp785
I5
I1
ssg65
(dp786
I0
I1
sI3
I1
sI5
I1
ssg458
(dp787
I5
I1
ssg11
(dp788
I8
I1
ssS'emphysema'
p789
(dp790
I6
I1
ssg13
(dp791
I3
I1
ssg107
(dp792
I8
I1
ssg19
(dp793
I5
I1
ssg73
(dp794
I5
I1
ssS'chronic diseases'
p795
(dp796
I8
I1
ssg719
(dp797
I7
I1
ssg37
(dp798
I4
I1
sI6
I1
sssS'17'
p799
(dp800
S'common variable immunodeficiency'
p801
(dp802
I0
I1
sI1
I1
sI6
I1
ssg9
(dp803
I0
I1
sI1
I1
sI2
I1
sI6
I1
sI9
I1
ssS'amoebic liver abscess'
p804
(dp805
I8
I1
sI3
I2
ssg13
(dp806
I1
I1
sI6
I1
ssg462
(dp807
I2
I1
ssS'colic'
p808
(dp809
I5
I1
ssg236
(dp810
I0
I1
sI1
I1
sI2
I3
sI3
I2
sI4
I1
sI6
I1
sI8
I2
ssS'fevers'
p811
(dp812
I2
I1
ssS'hepatomegaly'
p813
(dp814
I1
I1
sI3
I1
sI6
I1
ssS'stricture'
p815
(dp816
I7
I1
ssg115
(dp817
I3
I1
ssg35
(dp818
I8
I1
sI2
I1
sI3
I1
ssg23
(dp819
I1
I1
ssg37
(dp820
I0
I1
sI2
I3
sI7
I2
ssg39
(dp821
I8
I1
sI1
I2
sI2
I1
sI3
I1
sI6
I2
ssg41
(dp822
I0
I1
sI1
I1
sI2
I1
sI3
I1
sI4
I1
sI6
I1
sI9
I1
ssg43
(dp823
I9
I1
sI3
I1
ssS'hepatic abscess'
p824
(dp825
I2
I3
ssg53
(dp826
I0
I1
sI1
I1
sI4
I1
sI6
I1
sI8
I1
ssS'liver abscess'
p827
(dp828
I8
I2
sI0
I1
sI3
I2
sI6
I1
sI1
I1
ssg65
(dp829
I7
I1
ssg229
(dp830
I4
I1
ssg772
(dp831
I7
I1
ssS'tuberculous peritonitis'
p832
(dp833
I4
I1
sssS'16'
p834
(dp835
g586
(dp836
I6
I1
ssg682
(dp837
I0
I1
sI3
I1
ssg39
(dp838
I6
I1
ssg41
(dp839
I0
I1
sI9
I1
sI3
I2
ssS'numbness'
p840
(dp841
I0
I1
sI3
I1
ssg29
(dp842
I1
I1
ssS'neurological disorder'
p843
(dp844
I3
I1
ssg772
(dp845
I9
I1
ssg65
(dp846
I0
I1
sI1
I1
sI3
I1
sI5
I1
sI6
I1
sI8
I1
ssg177
(dp847
I6
I1
ssg11
(dp848
I9
I1
sI2
I2
ssS'parkinsons disease'
p849
(dp850
I2
I2
ssg35
(dp851
I3
I1
ssg19
(dp852
I1
I1
ssg743
(dp853
I5
I1
ssg37
(dp854
I0
I1
sI5
I1
ssS'neurological disorders'
p855
(dp856
I3
I1
sssS'19'
p857
(dp858
g3
(dp859
I6
I1
ssS'dysphagia'
p860
(dp861
I0
I2
sI1
I2
sI4
I1
sI7
I2
sI8
I1
sI9
I1
ssg9
(dp862
I6
I1
ssg154
(dp863
I4
I1
ssg458
(dp864
I0
I1
sI1
I1
sI2
I1
sI3
I1
sI5
I1
sI6
I1
sI7
I1
sI8
I1
ssg11
(dp865
I8
I1
sI4
I1
ssS'dehydration'
p866
(dp867
I2
I1
ssg13
(dp868
I9
I1
sI4
I1
sI6
I1
ssg15
(dp869
I2
I1
ssg17
(dp870
I8
I2
ssg19
(dp871
I2
I1
ssg23
(dp872
I1
I1
sI6
I1
ssg97
(dp873
I6
I1
ssg238
(dp874
I8
I2
ssg35
(dp875
I1
I1
ssS'jaundice'
p876
(dp877
I5
I1
ssS'heartburn'
p878
(dp879
I5
I1
ssg37
(dp880
I8
I2
sI2
I1
sI7
I2
ssS'emesis'
p881
(dp882
I1
I1
ssg39
(dp883
I4
I1
sI5
I1
ssg41
(dp884
I3
I1
sI6
I4
ssg45
(dp885
I5
I1
ssg86
(dp886
I6
I1
ssg55
(dp887
I6
I1
ssg211
(dp888
I2
I1
sI3
I1
ssS'hematemesis'
p889
(dp890
I1
I1
ssg637
(dp891
I2
I1
ssg313
(dp892
I4
I1
ssg95
(dp893
I2
I1
ssS'b cell lymphoma'
p894
(dp895
I9
I1
ssg83
(dp896
I5
I1
ssg639
(dp897
I9
I1
ssg81
(dp898
I6
I1
ssg137
(dp899
I9
I1
ssg65
(dp900
I0
I1
sI2
I1
sI3
I1
ssg158
(dp901
I9
I1
ssS'melena'
p902
(dp903
I1
I1
ssg452
(dp904
I5
I1
sssS'18'
p905
(dp906
g39
(dp907
I6
I1
ssS'glomerulonephritis'
p908
(dp909
I5
I2
ssg43
(dp910
I9
I1
ssg29
(dp911
I6
I1
ssg41
(dp912
I4
I1
ssS'ranula'
p913
(dp914
I8
I1
ssg11
(dp915
I0
I4
ssS'flank pain'
p916
(dp917
I4
I1
ssg65
(dp918
I0
I2
sI1
I1
sI7
I1
ssg13
(dp919
I6
I1
ssg15
(dp920
I7
I1
ssg213
(dp921
I8
I1
sI4
I1
ssg35
(dp922
I5
I1
ssg217
(dp923
I5
I2
ssS'oliguria'
p924
(dp925
I4
I1
ssS'hematuria'
p926
(dp927
I8
I1
sI4
I1
ssS'kidney disease'
p928
(dp929
I0
I4
ssg37
(dp930
I0
I1
sssS'30'
p931
(dp932
g311
(dp933
I5
I1
sI7
I1
ssS'abdominal aortic aneurysms'
p934
(dp935
I8
I1
ssg154
(dp936
I0
I1
ssg345
(dp937
I8
I1
ssg65
(dp938
I5
I1
ssS'vascular diseases'
p939
(dp940
I7
I1
ssS'stroke'
p941
(dp942
I9
I1
ssg13
(dp943
I8
I1
sI9
I1
sI3
I1
sI4
I1
ssg15
(dp944
I8
I1
ssS'graft versus host disease'
p945
(dp946
I4
I1
ssS'carotid artery disease'
p947
(dp948
I1
I1
ssS'aortic aneurysm'
p949
(dp950
I8
I1
ssS'muscle pain'
p951
(dp952
I2
I1
ssS'aortic aneurysms'
p953
(dp954
I8
I1
ssS'arteriosclerosis'
p955
(dp956
I1
I1
ssg350
(dp957
I7
I1
ssg53
(dp958
I8
I1
ssg661
(dp959
I8
I1
ssS'cardiovascular diseases'
p960
(dp961
I7
I1
ssS'disease heart'
p962
(dp963
I1
I1
ssg37
(dp964
I8
I1
ssg39
(dp965
I3
I1
ssg41
(dp966
I0
I1
sI2
I3
sI3
I1
sI4
I1
sI6
I1
sI7
I2
sI8
I1
sI9
I1
ssg107
(dp967
I7
I1
ssS'respiratory sounds'
p968
(dp969
I3
I1
ssS'peripheral artery disease'
p970
(dp971
I2
I2
ssS'wart'
p972
(dp973
I8
I1
ssg35
(dp974
I7
I1
ssS'abdominal aortic aneurysm'
p975
(dp976
I8
I1
ssS'disease sc'
p977
(dp978
I8
I1
ssg55
(dp979
I7
I1
ssg322
(dp980
I5
I1
sI7
I1
ssg313
(dp981
I0
I1
sI1
I1
ssS'respiratory sound'
p982
(dp983
I3
I1
ssS'microvascular angina'
p984
(dp985
I7
I1
ssg663
(dp986
I8
I1
ssg840
(dp987
I2
I1
ssS'sclerosis'
p988
(dp989
I1
I1
ssg11
(dp990
I0
I1
sI1
I4
sI2
I2
sI4
I1
sI5
I1
sI6
I1
sI7
I1
sI8
I2
sI9
I1
ssg196
(dp991
I6
I1
ssg370
(dp992
I8
I1
ssg675
(dp993
I8
I1
ssg375
(dp994
I8
I1
sI1
I1
sI9
I1
sss.