(dp0
S'24'
p1
(dp2
S'constipation'
p3
(dp4
I0
I1
ssS'sclerosis'
p5
(dp6
I0
I1
sI4
I1
sI6
I1
sI7
I1
ssS'heartburn'
p7
(dp8
I8
I1
ssS'sti'
p9
(dp10
I0
I4
sI8
I2
sI2
I1
sI7
I1
sI1
I1
ssS'parkinsons disease'
p11
(dp12
I0
I1
ssS'disease intestinal'
p13
(dp14
I7
I1
ssS'ulcer'
p15
(dp16
I7
I1
ssS'plegia'
p17
(dp18
I0
I1
sI6
I1
ssS'aids'
p19
(dp20
I1
I1
ssS'peptic ulcer'
p21
(dp22
I7
I1
ssS'disease'
p23
(dp24
I0
I2
sI7
I1
ssS'spinal cord injury'
p25
(dp26
I7
I1
ssS'trauma'
p27
(dp28
I7
I1
ssS'sid'
p29
(dp30
I5
I1
ssS'multiple sclerosis'
p31
(dp32
I0
I1
sI4
I1
sI6
I1
sI7
I1
ssS'tic'
p33
(dp34
I9
I1
sI7
I2
sI5
I1
sI1
I1
ssS'burn'
p35
(dp36
I8
I1
ssS'pain'
p37
(dp38
I2
I1
ssS'ileus'
p39
(dp40
I0
I3
sI2
I1
ssS'intestinal obstruction'
p41
(dp42
I0
I3
sI8
I1
sI2
I1
sI7
I1
ssS'vomiting'
p43
(dp44
I2
I1
ssS'alzheimers disease'
p45
(dp46
I0
I1
ssS'neurogenic bladder'
p47
(dp48
I7
I1
ssS'quadriplegia'
p49
(dp50
I0
I1
sI6
I1
ssS'peritonitis'
p51
(dp52
I4
I1
ssS'urge incontinence'
p53
(dp54
I9
I1
ssS'abdominal pain'
p55
(dp56
I2
I1
ssS'urinary incontinence'
p57
(dp58
I9
I2
sssS'25'
p59
(dp60
S'hypercholesterolemia'
p61
(dp62
I4
I1
ssS'pulmonary disease'
p63
(dp64
I9
I1
sI7
I1
ssg23
(dp65
I0
I2
sI1
I1
sI2
I1
sI5
I1
sI6
I1
sI7
I1
sI9
I1
ssS'hypertension'
p66
(dp67
I0
I1
sI1
I1
sI2
I1
sI3
I1
sI4
I1
sI5
I1
sI6
I1
sI7
I1
sI9
I1
ssS'obstructive pulmonary disease'
p68
(dp69
I9
I1
sI7
I1
ssS'pulmonary hypertension'
p70
(dp71
I0
I1
sI1
I1
sI6
I1
sI9
I1
ssS'diabetes mellitus'
p72
(dp73
I4
I1
ssS'acute pain'
p74
(dp75
I3
I1
ssS'dyspnea'
p76
(dp77
I1
I1
sI2
I1
sI5
I1
sI9
I1
ssS'heart disease'
p78
(dp79
I0
I1
sI1
I1
sI5
I1
sI6
I1
ssS'tricuspid valve regurgitation'
p80
(dp81
I6
I1
ssS'cardiac failure'
p82
(dp83
I1
I1
ssS'patent ductus arteriosus'
p84
(dp85
I0
I1
ssS'heart murmur'
p86
(dp87
I4
I1
ssS'endocarditis'
p88
(dp89
I6
I1
ssS'stenosis'
p90
(dp91
I3
I1
sI6
I1
ssg33
(dp92
I2
I1
sI3
I1
sI5
I1
ssg37
(dp93
I3
I1
sI4
I1
ssS'diseases'
p94
(dp95
I1
I1
ssS'copd'
p96
(dp97
I3
I1
ssS'mitral stenosis'
p98
(dp99
I6
I1
ssS'atrial fibrillation'
p100
(dp101
I1
I1
sI2
I1
sI3
I1
sI4
I1
sI5
I1
sI6
I1
sI8
I1
sI9
I1
ssS'breathlessness'
p102
(dp103
I0
I1
ssS'aortic stenosis'
p104
(dp105
I3
I1
ssS'arrhythmia'
p106
(dp107
I5
I1
ssS'diabetes mellitus type i'
p108
(dp109
I4
I1
ssS'cyanosis'
p110
(dp111
I0
I2
ssS'fatigue'
p112
(dp113
I0
I1
ssS'lung disease'
p114
(dp115
I0
I1
ssS'tetralogy of fallot'
p116
(dp117
I9
I1
ssS'cough'
p118
(dp119
I2
I1
sI7
I1
ssS'atrial septal defect'
p120
(dp121
I0
I1
sI1
I2
sI8
I1
sI7
I1
ssS'atrial flutter'
p122
(dp123
I9
I1
ssS'shortness of breath'
p124
(dp125
I4
I1
sI7
I1
ssS'ventricular septal defect'
p126
(dp127
I4
I1
ssS'diabetes mellitus type ii'
p128
(dp129
I4
I1
ssg9
(dp130
I6
I1
sI7
I1
ssS'hyperlipidemia'
p131
(dp132
I2
I1
ssS'chest pain'
p133
(dp134
I4
I1
ssS'chronic obstructive pulmonary disease'
p135
(dp136
I9
I1
sI7
I1
ssS'hypothyroidism'
p137
(dp138
I8
I1
ssS'heart diseases'
p139
(dp140
I1
I1
sssS'26'
p141
(dp142
S'gout'
p143
(dp144
I6
I1
ssS'lethargy'
p145
(dp146
I3
I1
ssg23
(dp147
I1
I1
sI4
I1
ssS'arc'
p148
(dp149
I8
I1
sI9
I1
sI4
I1
ssg66
(dp150
I1
I1
sI2
I1
sI3
I1
sI4
I1
sI5
I1
ssg19
(dp151
I3
I1
ssg72
(dp152
I4
I1
ssg76
(dp153
I9
I2
sI2
I1
sI7
I1
sI6
I1
sI1
I1
ssS'emergency'
p154
(dp155
I8
I1
sI1
I1
sI5
I1
ssS'heart failure'
p156
(dp157
I8
I1
ssS'myocardial infarct'
p158
(dp159
I9
I1
sI4
I1
ssS'cardiogenic shock'
p160
(dp161
I8
I1
ssS'infarction'
p162
(dp163
I9
I1
sI4
I1
ssS'confusion'
p164
(dp165
I3
I1
ssS'headaches'
p166
(dp167
I4
I1
ssS'headache'
p168
(dp169
I4
I1
ssS'fever'
p170
(dp171
I6
I1
sI7
I1
ssg37
(dp172
I1
I1
sI2
I1
sI3
I1
sI4
I1
sI5
I1
sI6
I1
sI7
I1
ssS'type 2 diabetes mellitus'
p173
(dp174
I4
I1
ssS'hives'
p175
(dp176
I8
I1
ssg100
(dp177
I0
I1
sI9
I1
sI5
I1
ssg29
(dp178
I5
I1
ssg43
(dp179
I5
I1
ssg133
(dp180
I1
I1
sI2
I1
sI3
I1
sI5
I1
sI6
I1
sI7
I1
ssg112
(dp181
I1
I1
sI6
I1
ssS'myocardial infarction'
p182
(dp183
I9
I1
sI4
I1
ssg118
(dp184
I6
I1
sI7
I1
ssS'arthritis'
p185
(dp186
I6
I1
ssS'nausea'
p187
(dp188
I5
I1
ssS'chills'
p189
(dp190
I6
I1
ssg124
(dp191
I8
I1
sI3
I1
sI5
I1
ssS'knee injury'
p192
(dp193
I6
I1
ssS'shock'
p194
(dp195
I8
I1
ssg9
(dp196
I1
I1
ssS'hemoptysis'
p197
(dp198
I7
I1
ssS'gouty arthritis'
p199
(dp200
I6
I1
ssS'delirium'
p201
(dp202
I3
I1
ssS'coronary artery disease'
p203
(dp204
I1
I1
sI4
I1
ssg96
(dp205
I9
I1
sI7
I1
sssS'27'
p206
(dp207
S'neck pain'
p208
(dp209
I0
I1
sI7
I1
ssg55
(dp210
I9
I1
ssS'head trauma'
p211
(dp212
I2
I1
ssg23
(dp213
I7
I1
ssS'stroke'
p214
(dp215
I7
I1
ssS'subdural hematoma'
p216
(dp217
I1
I2
sI3
I2
sI5
I1
ssS'brain dead'
p218
(dp219
I4
I1
ssg37
(dp220
I0
I2
sI9
I1
sI4
I1
sI7
I1
ssS'hemorrhage'
p221
(dp222
I2
I1
sI6
I1
ssS'dementia'
p223
(dp224
I9
I1
ssg166
(dp225
I9
I1
sI4
I1
ssS'syndrome'
p226
(dp227
I3
I2
ssg156
(dp228
I7
I1
ssS'migraine'
p229
(dp230
I4
I2
ssS'acute subdural hematoma'
p231
(dp232
I3
I1
ssS'hematoma'
p233
(dp234
I1
I3
sI2
I2
sI3
I2
sI5
I1
ssS'diarrhea'
p235
(dp236
I7
I1
ssS'ache neck'
p237
(dp238
I0
I1
ssg27
(dp239
I2
I1
ssg29
(dp240
I9
I1
sI4
I1
ssg164
(dp241
I8
I2
ssg168
(dp242
I0
I1
sI9
I1
sI3
I1
sI4
I1
ssS'migraine headaches'
p243
(dp244
I4
I1
ssg154
(dp245
I8
I2
ssS'rheumatoid arthritis'
p246
(dp247
I7
I1
ssg100
(dp248
I0
I1
ssg185
(dp249
I7
I1
ssg43
(dp250
I9
I1
ssS'head injuries'
p251
(dp252
I1
I1
sI2
I1
ssS'hernia'
p253
(dp254
I1
I1
ssS'kidney disease'
p255
(dp256
I7
I1
ssg187
(dp257
I9
I1
ssS'subdural hemorrhage'
p258
(dp259
I6
I1
ssS'brain injury'
p260
(dp261
I5
I1
sI6
I2
ssS'migraine headache'
p262
(dp263
I4
I1
ssg9
(dp264
I4
I1
ssS'head injury'
p265
(dp266
I8
I1
sI2
I1
sI3
I1
ssg148
(dp267
I5
I1
ssg66
(dp268
I7
I1
sssS'20'
p269
(dp270
S'cramp'
p271
(dp272
I6
I1
ssS'pancreatitis'
p273
(dp274
I0
I2
sI3
I1
ssg55
(dp275
I0
I1
sI1
I1
sI3
I1
sI4
I1
sI5
I1
sI6
I1
sI8
I1
ssS'weight loss'
p276
(dp277
I4
I1
ssg23
(dp278
I0
I1
sI5
I1
ssg148
(dp279
I6
I1
ssS'hepatitis a'
p280
(dp281
I3
I1
ssg235
(dp282
I8
I1
ssS'hepatitis'
p283
(dp284
I3
I1
ssg29
(dp285
I7
I1
ssS'infectious disease'
p286
(dp287
I5
I1
ssg33
(dp288
I0
I1
sI3
I1
sI6
I1
ssg170
(dp289
I1
I1
sI4
I2
sI5
I1
sI7
I1
ssg37
(dp290
I0
I1
sI1
I1
sI3
I1
sI4
I1
sI5
I2
sI6
I1
sI8
I1
ssg94
(dp291
I5
I1
ssg100
(dp292
I1
I1
ssS'infection'
p293
(dp294
I3
I2
ssg43
(dp295
I0
I1
sI2
I1
sI3
I1
sI4
I1
sI7
I1
sI8
I1
ssS'pancytopenia'
p296
(dp297
I1
I1
ssS'pain acute'
p298
(dp299
I5
I1
ssS'infectious diseases'
p300
(dp301
I5
I1
ssg187
(dp302
I0
I1
sI8
I1
sI2
I2
sI4
I1
sI6
I1
ssS'ebv infection'
p303
(dp304
I3
I1
ssg124
(dp305
I4
I1
ssg9
(dp306
I0
I1
sI5
I1
sI6
I1
ssS'dizziness'
p307
(dp308
I6
I1
ssg189
(dp309
I4
I1
sssS'21'
p310
(dp311
g23
(dp312
I8
I1
sI1
I3
sI2
I1
sI6
I1
ssS'fever of unknown origin'
p313
(dp314
I4
I1
ssg19
(dp315
I5
I1
ssS'scar'
p316
(dp317
I0
I2
ssS'arteritis'
p318
(dp319
I4
I1
ssS'spondylitis'
p320
(dp321
I5
I1
ssg300
(dp322
I2
I1
ssg226
(dp323
I5
I1
ssS'boop'
p324
(dp325
I3
I1
ssS'sinusitis'
p326
(dp327
I2
I3
ssg286
(dp328
I2
I1
ssg33
(dp329
I5
I2
sI6
I1
ssS'bronchiolitis obliterans'
p330
(dp331
I3
I1
ssg170
(dp332
I3
I1
sI4
I1
ssg94
(dp333
I2
I1
ssS'vasculitis'
p334
(dp335
I4
I1
ssS'bronchiolitis obliterans organizing pneumonia'
p336
(dp337
I3
I1
ssg293
(dp338
I0
I2
sI1
I1
sI6
I1
sI8
I1
ssS'cytomegalovirus infections'
p339
(dp340
I0
I2
ssS'bronchiolitis'
p341
(dp342
I3
I1
ssg118
(dp343
I2
I1
sI3
I1
ssS'lymphoma'
p344
(dp345
I5
I1
ssS'necrosis'
p346
(dp347
I4
I1
ssS'infections'
p348
(dp349
I0
I2
ssg9
(dp350
I2
I1
sI3
I1
sI5
I2
ssS'polyarteritis nodosa'
p351
(dp352
I4
I1
ssS'tumor'
p353
(dp354
I5
I1
ssS'pneumonia'
p355
(dp356
I3
I1
ssS'cytomegalovirus infection'
p357
(dp358
I0
I2
sI1
I1
sssS'22'
p359
(dp360
g78
(dp361
I5
I1
ssS'ventricular tachycardia'
p362
(dp363
I5
I2
ssg156
(dp364
I0
I3
sI1
I1
ssg100
(dp365
I0
I1
ssS'ventricular fibrillation'
p366
(dp367
I9
I1
sI5
I1
sI6
I1
sI7
I2
ssg23
(dp368
I0
I1
sI1
I1
sI5
I1
ssg9
(dp369
I0
I1
sI1
I1
sI2
I1
sI3
I1
sI6
I1
sI9
I1
ssS'cardiac arrest'
p370
(dp371
I9
I1
sI5
I1
sI6
I1
sI7
I1
ssS'ischemic heart disease'
p372
(dp373
I5
I1
ssS'tachycardia'
p374
(dp375
I5
I2
ssg203
(dp376
I0
I1
sI1
I1
ssg33
(dp377
I0
I1
sI6
I1
sssS'23'
p378
(dp379
S'men i'
p380
(dp381
I1
I1
ssS'bleeding'
p382
(dp383
I4
I1
ssg55
(dp384
I8
I1
ssg23
(dp385
I5
I1
sI6
I1
ssg66
(dp386
I9
I1
ssS'aortic aneurysm'
p387
(dp388
I1
I1
ssg76
(dp389
I7
I1
ssS'pallor'
p390
(dp391
I5
I1
ssg156
(dp392
I6
I1
ssS'intraoperative complications'
p393
(dp394
I4
I1
ssg29
(dp395
I9
I1
ssS'aneurysm'
p396
(dp397
I1
I1
ssS'jaundice'
p398
(dp399
I9
I1
ssg33
(dp400
I1
I1
sI3
I2
ssS'intraoperative complication'
p401
(dp402
I4
I1
ssS'abdominal aortic aneurysm'
p403
(dp404
I1
I1
ssg43
(dp405
I9
I1
ssg133
(dp406
I7
I1
ssg112
(dp407
I5
I1
ssS'tuberculosis'
p408
(dp409
I6
I1
ssg118
(dp410
I7
I1
ssg37
(dp411
I8
I1
sI7
I1
ssg187
(dp412
I9
I1
ssg9
(dp413
I8
I1
sI6
I1
ssg353
(dp414
I3
I1
ssS'inflammatory bowel disease'
p415
(dp416
I6
I1
sssS'28'
p417
(dp418
S'vascular disease'
p419
(dp420
I0
I1
ssg271
(dp421
I2
I1
ssg382
(dp422
I4
I3
ssg55
(dp423
I2
I1
sI6
I1
sI7
I1
ssg276
(dp424
I7
I1
ssg23
(dp425
I0
I1
sI1
I1
sI2
I2
sI3
I1
sI4
I1
sI8
I1
sI9
I1
ssg148
(dp426
I8
I1
sI2
I1
ssg66
(dp427
I1
I1
sI5
I1
ssg15
(dp428
I2
I1
ssg72
(dp429
I0
I1
ssg223
(dp430
I1
I1
ssS'anorexia'
p431
(dp432
I1
I1
ssg226
(dp433
I0
I1
ssS'syncope'
p434
(dp435
I4
I1
ssS'peripheral vascular disease'
p436
(dp437
I0
I1
ssg235
(dp438
I7
I1
ssg158
(dp439
I8
I1
sI2
I1
ssg162
(dp440
I8
I1
ssg33
(dp441
I4
I1
ssS'emesis'
p442
(dp443
I0
I1
sI9
I1
sI4
I1
sI6
I1
ssg37
(dp444
I2
I1
sI6
I1
sI7
I1
ssg154
(dp445
I1
I1
ssg43
(dp446
I1
I1
sI4
I1
sI9
I2
sI6
I1
sI7
I1
ssS'hematemesis'
p447
(dp448
I6
I1
ssS'duodenal ulcer'
p449
(dp450
I2
I1
ssg187
(dp451
I6
I1
ssS'disease myocardial'
p452
(dp453
I2
I1
ssg346
(dp454
I0
I1
ssg9
(dp455
I4
I1
ssg197
(dp456
I5
I2
ssg182
(dp457
I8
I1
ssS'melena'
p458
(dp459
I1
I1
sI3
I2
sI6
I1
ssg203
(dp460
I1
I1
sI2
I1
sI9
I1
sssS'29'
p461
(dp462
S'bronchitis'
p463
(dp464
I6
I1
ssg63
(dp465
I6
I1
sI7
I3
ssg9
(dp466
I4
I1
sI6
I1
ssg148
(dp467
I8
I1
ssS'pneumothorax'
p468
(dp469
I6
I1
ssS'cor pulmonale'
p470
(dp471
I6
I1
ssg19
(dp472
I4
I1
ssS'idiopathic pulmonary fibrosis'
p473
(dp474
I3
I2
ssS'symptoms and signs'
p475
(dp476
I3
I1
ssg156
(dp477
I9
I2
ssg158
(dp478
I8
I1
ssS'emphysema'
p479
(dp480
I6
I1
ssg27
(dp481
I4
I1
sI6
I1
ssg162
(dp482
I8
I1
ssS'pulmonary fibrosis'
p483
(dp484
I3
I3
ssg76
(dp485
I0
I2
sI1
I1
sI4
I1
sI5
I1
sI6
I1
sI8
I1
ssS'fibrosis'
p486
(dp487
I3
I3
sI6
I1
ssg33
(dp488
I9
I1
sI2
I1
sI4
I1
sI6
I2
ssS'aspergillosis'
p489
(dp490
I5
I1
ssg170
(dp491
I2
I1
sI5
I1
ssg37
(dp492
I2
I1
sI4
I1
ssg94
(dp493
I3
I1
sI7
I2
ssg96
(dp494
I1
I1
sI5
I1
ssS'back pain'
p495
(dp496
I2
I1
ssg133
(dp497
I4
I1
ssg182
(dp498
I8
I1
ssg118
(dp499
I2
I1
sI6
I1
ssS'chronic bronchitis'
p500
(dp501
I6
I1
ssg124
(dp502
I2
I1
sI3
I1
sI5
I1
ssS'fevers'
p503
(dp504
I2
I1
sI5
I1
ssg23
(dp505
I8
I1
sI1
I1
sI3
I1
sI6
I1
sI7
I4
ssg353
(dp506
I4
I1
ssg355
(dp507
I0
I1
sI7
I1
ssS'cystic fibrosis'
p508
(dp509
I6
I1
ssS'pulmonary diseases'
p510
(dp511
I7
I2
ssS'cyst'
p512
(dp513
I4
I1
sI6
I1
ssg458
(dp514
I2
I1
ssg189
(dp515
I0
I1
sI5
I1
sssS'1'
p516
(dp517
g382
(dp518
I0
I4
sI1
I2
sI2
I1
sI5
I2
sI6
I1
sI8
I1
ssg55
(dp519
I7
I2
ssg9
(dp520
I0
I2
sI1
I1
sI4
I2
sI5
I2
sI6
I1
sI8
I1
sI9
I1
ssg15
(dp521
I8
I1
sI3
I1
ssS'liver disease'
p522
(dp523
I6
I1
ssS'varices'
p524
(dp525
I5
I1
ssg221
(dp526
I0
I1
ssS'flatus'
p527
(dp528
I7
I1
ssg431
(dp529
I7
I1
ssg235
(dp530
I4
I1
ssS'crohn disease'
p531
(dp532
I2
I1
ssg33
(dp533
I0
I1
sI4
I2
sI5
I1
ssg442
(dp534
I0
I1
sI5
I1
ssg170
(dp535
I6
I1
ssg37
(dp536
I7
I2
ssg94
(dp537
I7
I1
ssg154
(dp538
I6
I1
ssg43
(dp539
I0
I2
sI2
I1
sI7
I1
ssg447
(dp540
I0
I1
sI5
I1
ssg449
(dp541
I3
I1
ssS'hypotension'
p542
(dp543
I7
I1
ssg23
(dp544
I2
I1
sI3
I1
sI6
I1
sI7
I1
ssg458
(dp545
I0
I1
sI1
I1
sI2
I1
sI4
I1
sI7
I1
sI8
I3
sssS'3'
p546
(dp547
g55
(dp548
I6
I1
ssS'leukocytosis'
p549
(dp550
I0
I1
sI5
I1
ssg9
(dp551
I8
I1
ssS'proteinuria'
p552
(dp553
I1
I2
ssS'pyuria'
p554
(dp555
I6
I1
ssS'rash'
p556
(dp557
I7
I1
ssg29
(dp558
I1
I1
ssS'wegener granulomatosis'
p559
(dp560
I3
I1
ssS'cysts'
p561
(dp562
I8
I1
ssS'apnea'
p563
(dp564
I2
I1
ssS'pharyngitis'
p565
(dp566
I7
I1
ssS'overweight'
p567
(dp568
I2
I1
ssS'sleep apnea'
p569
(dp570
I2
I1
ssS'obstructive sleep apnea'
p571
(dp572
I2
I1
ssS'critically ill'
p573
(dp574
I5
I1
ssS'granuloma'
p575
(dp576
I3
I1
ssg37
(dp577
I6
I1
ssS'anemia'
p578
(dp579
I6
I1
ssS'acute kidney injury'
p580
(dp581
I5
I1
ssg542
(dp582
I0
I1
ssg23
(dp583
I3
I1
ssg355
(dp584
I6
I1
ssg512
(dp585
I8
I1
ssg33
(dp586
I9
I1
sI4
I2
sI5
I1
sI6
I1
ssS'bradycardia'
p587
(dp588
I0
I1
sssS'2'
p589
(dp590
g271
(dp591
I1
I1
ssg170
(dp592
I1
I1
ssg37
(dp593
I0
I2
sI1
I1
sI6
I1
sI7
I2
ssS'periprosthetic fracture'
p594
(dp595
I3
I1
ssg154
(dp596
I8
I1
sI1
I1
ssS'osteolysis'
p597
(dp598
I3
I1
ssg226
(dp599
I0
I1
ssg185
(dp600
I0
I2
sI9
I3
ssg9
(dp601
I9
I1
sI3
I1
ssg29
(dp602
I7
I1
ssS'osteoarthritis'
p603
(dp604
I0
I1
sI9
I1
ssg27
(dp605
I3
I1
ssS'hip dislocation'
p606
(dp607
I4
I1
ssg55
(dp608
I1
I1
ssS'sciatica'
p609
(dp610
I5
I1
ssS'piriformis syndrome'
p611
(dp612
I0
I1
ssS'dislocation'
p613
(dp614
I4
I4
ssg33
(dp615
I0
I1
sI3
I1
sI5
I1
sssS'5'
p616
(dp617
g271
(dp618
I2
I1
ssg15
(dp619
I2
I1
ssg463
(dp620
I3
I1
ssg55
(dp621
I2
I1
ssg63
(dp622
I7
I2
ssg9
(dp623
I9
I2
sI7
I1
ssg148
(dp624
I6
I1
ssg68
(dp625
I7
I2
ssg76
(dp626
I0
I1
sI1
I2
sI4
I1
sI5
I1
sI7
I1
sI9
I1
ssg118
(dp627
I0
I1
sI1
I2
sI3
I2
sI4
I1
sI7
I1
sI8
I1
sI9
I2
ssS'asthma'
p628
(dp629
I2
I1
sI7
I1
ssg556
(dp630
I1
I1
ssS'shingles'
p631
(dp632
I0
I1
ssS'noma'
p633
(dp634
I6
I1
ssg33
(dp635
I8
I1
sI0
I1
sI5
I1
sI7
I1
ssg170
(dp636
I9
I1
sI2
I1
sI5
I1
sI6
I1
ssg37
(dp637
I8
I1
sI2
I1
sI4
I1
sI5
I1
ssg96
(dp638
I7
I2
ssg133
(dp639
I5
I1
ssS'carcinoma'
p640
(dp641
I6
I1
ssS'coma'
p642
(dp643
I2
I1
ssg449
(dp644
I2
I1
ssg189
(dp645
I9
I1
sI6
I1
ssg500
(dp646
I3
I1
ssg23
(dp647
I0
I1
sI9
I1
sI2
I1
sI4
I1
sI7
I2
ssg197
(dp648
I3
I1
ssS'comatose'
p649
(dp650
I2
I1
ssg135
(dp651
I7
I2
ssg112
(dp652
I7
I1
ssg203
(dp653
I4
I1
sssS'4'
p654
(dp655
S'downs syndrome'
p656
(dp657
I8
I1
ssS'hypothermia'
p658
(dp659
I7
I1
ssg55
(dp660
I5
I1
ssS'low blood pressure'
p661
(dp662
I1
I1
sI2
I2
sI3
I2
ssg276
(dp663
I8
I1
ssg9
(dp664
I5
I1
ssg148
(dp665
I5
I1
ssg66
(dp666
I1
I1
ssg223
(dp667
I0
I1
sI1
I2
sI2
I1
sI3
I2
ssS'high blood pressure'
p668
(dp669
I1
I1
ssS'osteoporosis'
p670
(dp671
I0
I1
sI6
I1
ssg226
(dp672
I8
I1
sI4
I1
ssS'alzheimer disease'
p673
(dp674
I1
I1
ssg156
(dp675
I4
I1
ssS'disease ear'
p676
(dp677
I1
I1
ssg374
(dp678
I0
I1
sI8
I1
sI9
I1
ssS'tachypnea'
p679
(dp680
I0
I1
ssS'thyrotoxicosis'
p681
(dp682
I8
I1
ssg33
(dp683
I5
I1
ssg37
(dp684
I0
I1
sI8
I1
sI5
I2
sI7
I2
ssg154
(dp685
I9
I1
ssS'femoral neck fracture'
p686
(dp687
I8
I1
ssg133
(dp688
I0
I1
sI8
I1
sI7
I1
ssg307
(dp689
I3
I2
ssg542
(dp690
I1
I2
ssS'femoral neck fractures'
p691
(dp692
I8
I1
ssg194
(dp693
I8
I1
ssg23
(dp694
I1
I1
ssS'vascular dementia'
p695
(dp696
I1
I2
ssg458
(dp697
I0
I1
sssS'7'
p698
(dp699
g271
(dp700
I6
I1
ssg273
(dp701
I2
I1
ssg3
(dp702
I5
I1
ssg55
(dp703
I0
I1
sI2
I1
sI3
I1
sI4
I1
sI5
I1
sI8
I1
ssg276
(dp704
I5
I1
sI7
I1
ssS'ascites'
p705
(dp706
I3
I1
sI4
I1
ssS'dehydration'
p707
(dp708
I1
I1
ssS'cholelithiasis'
p709
(dp710
I0
I1
sI4
I1
ssg66
(dp711
I0
I1
sI9
I1
sI3
I1
sI6
I1
ssg522
(dp712
I6
I1
ssg19
(dp713
I1
I1
ssS'chronic pancreatitis'
p714
(dp715
I2
I1
ssg76
(dp716
I7
I1
ssS'hepatomegaly'
p717
(dp718
I3
I1
sI4
I1
ssg23
(dp719
I6
I1
sI7
I1
ssS'polycythemia'
p720
(dp721
I1
I1
ssg398
(dp722
I4
I1
ssS'pain joint'
p723
(dp724
I9
I1
ssg33
(dp725
I9
I1
sI2
I1
ssg37
(dp726
I0
I1
sI2
I1
sI3
I1
sI4
I1
sI5
I1
sI8
I1
sI9
I3
ssg154
(dp727
I8
I1
ssS'pernicious anemia'
p728
(dp729
I3
I1
ssg495
(dp730
I9
I1
ssS'enlarged liver'
p731
(dp732
I4
I1
ssg43
(dp733
I4
I1
sI5
I2
ssg296
(dp734
I0
I1
ssg112
(dp735
I7
I1
ssS'joint pain'
p736
(dp737
I9
I1
ssg114
(dp738
I7
I1
ssg118
(dp739
I7
I1
ssg578
(dp740
I3
I1
ssS'lithiasis'
p741
(dp742
I0
I1
sI4
I1
ssg187
(dp743
I4
I1
ssg9
(dp744
I2
I1
sI5
I1
sI7
I1
ssg148
(dp745
I2
I1
ssS'muscle weakness'
p746
(dp747
I9
I1
ssg512
(dp748
I2
I1
ssg458
(dp749
I0
I1
sssS'6'
p750
(dp751
g273
(dp752
I0
I3
ssg55
(dp753
I0
I1
sI3
I1
sI4
I1
ssg9
(dp754
I1
I1
sI2
I1
sI3
I1
ssS'cholecystitis'
p755
(dp756
I2
I1
sI3
I1
ssS'acute cholecystitis'
p757
(dp758
I2
I1
ssS'gallstone'
p759
(dp760
I0
I2
sI3
I1
sI7
I1
ssS'colic'
p761
(dp762
I3
I1
ssg226
(dp763
I1
I2
ssS'calculi'
p764
(dp765
I1
I1
ssg398
(dp766
I4
I1
ssg33
(dp767
I1
I1
ssg170
(dp768
I4
I1
ssg37
(dp769
I0
I1
sI1
I1
sI3
I3
sI4
I1
ssg293
(dp770
I4
I1
ssS'cystitis'
p771
(dp772
I2
I1
sI3
I1
ssS'biliary cirrhosis'
p773
(dp774
I7
I1
ssS'gallstones'
p775
(dp776
I0
I1
sI3
I1
sI7
I1
ssg194
(dp777
I4
I1
ssS'cholangitis'
p778
(dp779
I4
I4
ssg23
(dp780
I4
I2
ssS'post cholecystectomy syndrome'
p781
(dp782
I1
I2
ssg512
(dp783
I1
I3
sI2
I1
sI3
I1
sssS'9'
p784
(dp785
S'transient tachypnea of the newborn'
p786
(dp787
I4
I1
ssg468
(dp788
I6
I1
ssg226
(dp789
I0
I2
sI1
I1
sI5
I1
sI6
I2
ssS'down syndrome'
p790
(dp791
I5
I1
ssg63
(dp792
I8
I1
ssg9
(dp793
I8
I1
sI2
I1
sI3
I1
sI5
I1
sI7
I1
ssg94
(dp794
I5
I1
ssg23
(dp795
I8
I1
sI1
I1
sI5
I2
sI0
I1
sI7
I2
ssg479
(dp796
I2
I1
ssS'chromosomal disorder'
p797
(dp798
I5
I1
ssg114
(dp799
I0
I1
sI1
I1
sI5
I1
sI7
I1
ssS'ranula'
p800
(dp801
I6
I1
ssg84
(dp802
I6
I1
ssg679
(dp803
I4
I1
ssS'chromosomal disorders'
p804
(dp805
I5
I1
ssg33
(dp806
I8
I1
sI3
I1
sI6
I1
sssS'8'
p807
(dp808
g442
(dp809
I0
I2
ssS'tics'
p810
(dp811
I1
I1
ssS'acidosis'
p812
(dp813
I4
I1
sI5
I1
ssS'diabetic ketoacidosis'
p814
(dp815
I4
I1
ssg9
(dp816
I0
I1
sI1
I1
sI3
I1
ssS'ketoacidosis'
p817
(dp818
I4
I1
sI5
I1
ssg72
(dp819
I3
I2
ssS'type 1 diabetes mellitus'
p820
(dp821
I3
I2
ssg33
(dp822
I0
I1
sI1
I1
sI4
I1
sssS'11'
p823
(dp824
g203
(dp825
I2
I1
ssg37
(dp826
I1
I2
sI2
I1
sI3
I1
sI4
I1
sI5
I1
sI6
I1
sI8
I1
sI9
I1
ssg154
(dp827
I9
I1
sI6
I1
ssg156
(dp828
I4
I1
sI7
I1
ssg255
(dp829
I8
I1
ssg124
(dp830
I5
I1
sI6
I1
ssg23
(dp831
I0
I1
sI8
I1
sI2
I1
sI3
I2
ssS'heart attacks'
p832
(dp833
I2
I1
ssg9
(dp834
I6
I1
sI7
I1
ssS'systolic heart failure'
p835
(dp836
I4
I1
ssg631
(dp837
I0
I1
ssg133
(dp838
I1
I2
sI2
I1
sI5
I1
sI6
I1
sI8
I1
sI9
I1
ssg66
(dp839
I0
I1
sI9
I1
ssg293
(dp840
I4
I1
ssS'signs and symptoms'
p841
(dp842
I7
I1
ssg112
(dp843
I5
I1
ssg78
(dp844
I3
I2
ssS'heart attack'
p845
(dp846
I2
I3
ssg33
(dp847
I0
I1
sssS'10'
p848
(dp849
g380
(dp850
I1
I1
ssS'allergy'
p851
(dp852
I6
I1
ssg23
(dp853
I4
I1
ssS'sarcoidosis'
p854
(dp855
I0
I1
ssg148
(dp856
I0
I1
ssS'hepatitis b'
p857
(dp858
I7
I1
ssg19
(dp859
I7
I1
ssS'tuberous sclerosis'
p860
(dp861
I4
I1
ssg283
(dp862
I7
I1
ssg37
(dp863
I6
I1
sI7
I1
ssg154
(dp864
I8
I1
ssg164
(dp865
I0
I1
ssg185
(dp866
I8
I1
sI2
I1
ssg603
(dp867
I8
I1
sI2
I1
ssg133
(dp868
I7
I1
ssg578
(dp869
I6
I1
ssS'rosacea'
p870
(dp871
I9
I1
ssS'sickle cell anemia'
p872
(dp873
I6
I1
ssg5
(dp874
I4
I1
ssg9
(dp875
I6
I1
ssg458
(dp876
I0
I1
ssg203
(dp877
I4
I1
sssS'13'
p878
(dp879
S'decubitus ulcers'
p880
(dp881
I0
I1
ssS'pressure ulcer'
p882
(dp883
I6
I2
ssS'ulcers'
p884
(dp885
I0
I1
sI6
I2
ssg736
(dp886
I7
I1
ssS'pressure ulcers'
p887
(dp888
I6
I2
ssg15
(dp889
I0
I1
sI4
I1
sI6
I2
sI7
I1
ssg17
(dp890
I9
I1
ssg19
(dp891
I9
I1
sI4
I1
ssS'death'
p892
(dp893
I7
I1
ssg226
(dp894
I5
I1
ssS'paresis'
p895
(dp896
I9
I1
ssS'phoria'
p897
(dp898
I7
I1
ssg33
(dp899
I9
I1
sI7
I1
ssg37
(dp900
I0
I1
sI1
I3
sI2
I3
sI3
I3
sI5
I1
sI7
I1
sI9
I1
ssS'brain death'
p901
(dp902
I7
I1
ssg495
(dp903
I1
I1
ssg293
(dp904
I7
I1
ssS'paraplegia'
p905
(dp906
I9
I1
ssS'low back pain'
p907
(dp908
I1
I1
ssg23
(dp909
I4
I1
ssS'decubitus ulcer'
p910
(dp911
I0
I1
ssS'paraparesis'
p912
(dp913
I9
I1
ssS'gonorrhea'
p914
(dp915
I7
I1
ssg458
(dp916
I0
I1
sssS'12'
p917
(dp918
g170
(dp919
I0
I1
ssg37
(dp920
I0
I1
sI6
I1
ssg260
(dp921
I9
I1
ssg154
(dp922
I2
I1
sI4
I1
ssS'bone fracture'
p923
(dp924
I4
I1
sI6
I1
ssS'abdominal injuries'
p925
(dp926
I1
I1
ssg55
(dp927
I0
I1
ssg9
(dp928
I8
I1
ssg556
(dp929
I3
I1
sI7
I1
ssg265
(dp930
I1
I1
sI9
I1
ssg382
(dp931
I3
I1
sI6
I1
ssg251
(dp932
I3
I1
ssS'vascular injury'
p933
(dp934
I5
I1
ssg27
(dp935
I2
I1
sI5
I4
sI6
I2
sI7
I2
ssg29
(dp936
I2
I1
ssS'hemorrhages'
p937
(dp938
I8
I1
ssS'bone fractures'
p939
(dp940
I6
I1
ssg221
(dp941
I8
I1
ssS'hematuria'
p942
(dp943
I7
I1
ssg100
(dp944
I0
I1
ssg33
(dp945
I9
I1
sssS'15'
p946
(dp947
S'squamous cell carcinoma'
p948
(dp949
I7
I1
ssS'bronchomalacia'
p950
(dp951
I0
I1
ssg633
(dp952
I7
I1
ssg628
(dp953
I3
I2
sI4
I2
ssg96
(dp954
I0
I1
sI1
I2
sI6
I2
ssg29
(dp955
I9
I1
sI2
I1
ssg23
(dp956
I2
I1
sI5
I1
ssg276
(dp957
I6
I2
ssg9
(dp958
I2
I1
ssg148
(dp959
I7
I1
ssg640
(dp960
I7
I1
ssg508
(dp961
I2
I1
ssg114
(dp962
I2
I1
sI5
I1
ssg512
(dp963
I2
I1
ssS'tracheobronchomalacia'
p964
(dp965
I0
I1
ssS'urethral obstruction'
p966
(dp967
I9
I1
ssg458
(dp968
I0
I1
ssg118
(dp969
I0
I1
sI2
I1
ssg486
(dp970
I2
I1
ssS'lipoma'
p971
(dp972
I9
I1
ssg33
(dp973
I0
I1
sI2
I1
sssS'14'
p974
(dp975
g208
(dp976
I0
I1
ssg145
(dp977
I3
I1
ssg55
(dp978
I7
I1
ssg63
(dp979
I3
I1
ssg271
(dp980
I1
I1
ssg276
(dp981
I0
I1
sI6
I1
sI7
I1
ssg9
(dp982
I8
I1
ssg892
(dp983
I8
I1
ssg148
(dp984
I6
I1
ssg68
(dp985
I3
I1
ssg19
(dp986
I0
I1
ssg761
(dp987
I1
I1
ssg633
(dp988
I6
I1
ssg628
(dp989
I1
I1
ssg96
(dp990
I3
I1
sI5
I1
ssg503
(dp991
I5
I1
ssS'sneezing'
p992
(dp993
I4
I1
ssg76
(dp994
I9
I1
sI2
I1
ssg168
(dp995
I0
I1
ssg170
(dp996
I0
I1
sI1
I1
sI2
I1
sI3
I1
sI5
I1
sI6
I1
sI8
I1
ssg37
(dp997
I0
I1
sI1
I1
sI4
I3
sI6
I1
sI7
I1
sI9
I1
ssg154
(dp998
I1
I1
sI4
I1
ssg102
(dp999
I4
I1
ssg567
(dp1000
I9
I1
ssg133
(dp1001
I9
I1
sI4
I1
ssg640
(dp1002
I6
I1
ssg118
(dp1003
I0
I1
sI2
I1
sI3
I1
sI4
I1
sI5
I1
sI6
I1
sI8
I1
sI9
I2
ssg398
(dp1004
I1
I1
ssg124
(dp1005
I0
I1
sI2
I1
sI3
I1
sI6
I1
ssg23
(dp1006
I3
I1
ssg197
(dp1007
I9
I1
ssg355
(dp1008
I2
I1
ssg135
(dp1009
I3
I1
ssg33
(dp1010
I8
I1
sI3
I1
sssS'17'
p1011
(dp1012
g55
(dp1013
I7
I1
ssg70
(dp1014
I7
I1
ssS'dyslipidemia'
p1015
(dp1016
I3
I1
ssS'aneurysms'
p1017
(dp1018
I2
I1
ssg23
(dp1019
I8
I1
sI4
I1
sI7
I1
ssg66
(dp1020
I3
I1
sI7
I1
ssg387
(dp1021
I2
I1
ssg19
(dp1022
I5
I1
ssS'pain chest'
p1023
(dp1024
I7
I1
ssg76
(dp1025
I2
I1
sI7
I1
ssS'myxoma'
p1026
(dp1027
I8
I1
ssS'gerd'
p1028
(dp1029
I3
I1
ssg156
(dp1030
I0
I1
sI1
I1
sI6
I1
sI7
I1
sI8
I1
sI9
I3
ssS'shoulder pain'
p1031
(dp1032
I0
I1
ssg29
(dp1033
I2
I1
sI6
I1
ssS'peripheral arterial disease'
p1034
(dp1035
I7
I1
ssg374
(dp1036
I7
I1
ssg33
(dp1037
I8
I1
sI2
I2
sI3
I1
ssg442
(dp1038
I3
I1
ssg810
(dp1039
I8
I1
ssg37
(dp1040
I0
I1
sI7
I2
ssg154
(dp1041
I3
I1
sI6
I1
ssg100
(dp1042
I0
I2
sI3
I1
sI4
I1
sI5
I1
sI6
I1
sI7
I1
sI8
I1
sI9
I1
ssg567
(dp1043
I9
I1
ssg403
(dp1044
I2
I1
ssg133
(dp1045
I7
I1
ssg447
(dp1046
I3
I1
ssg124
(dp1047
I4
I1
ssg9
(dp1048
I0
I1
sI1
I1
sI2
I1
sI3
I1
sI6
I1
sI7
I1
sI8
I1
ssg396
(dp1049
I2
I3
ssS'coronary disease'
p1050
(dp1051
I8
I1
ssg203
(dp1052
I4
I1
sssS'16'
p1053
(dp1054
g9
(dp1055
I8
I1
sI2
I1
sI5
I1
sI6
I1
ssS'legionnaires disease'
p1056
(dp1057
I1
I1
ssg810
(dp1058
I5
I1
ssg66
(dp1059
I3
I1
ssS'ataxia'
p1060
(dp1061
I3
I1
ssS'severe acute respiratory syndrome'
p1062
(dp1063
I5
I1
ssS'muscle pain'
p1064
(dp1065
I4
I1
ssg226
(dp1066
I5
I1
ssg503
(dp1067
I0
I1
ssS'chest pains'
p1068
(dp1069
I9
I1
ssg29
(dp1070
I0
I1
sI8
I2
sI6
I1
ssS'facial asymmetry'
p1071
(dp1072
I1
I1
ssS'actinomycosis'
p1073
(dp1074
I5
I1
ssg33
(dp1075
I5
I1
sI6
I1
ssg170
(dp1076
I0
I1
sI3
I1
ssg37
(dp1077
I9
I1
sI4
I1
ssg154
(dp1078
I2
I1
ssg164
(dp1079
I2
I1
ssg293
(dp1080
I2
I1
ssg133
(dp1081
I9
I1
ssS'palsy'
p1082
(dp1083
I1
I1
ssS'atrophy'
p1084
(dp1085
I8
I1
ssg118
(dp1086
I0
I1
sI1
I1
ssg124
(dp1087
I1
I1
ssg23
(dp1088
I1
I1
ssg355
(dp1089
I1
I1
sI2
I1
sI5
I2
ssg458
(dp1090
I0
I1
ssS'legionella pneumophila infection'
p1091
(dp1092
I2
I1
sssS'19'
p1093
(dp1094
g145
(dp1095
I1
I1
ssg214
(dp1096
I2
I1
sI5
I1
ssg66
(dp1097
I1
I1
sI2
I1
sI4
I1
sI6
I1
sI7
I2
sI8
I1
sI9
I1
ssg19
(dp1098
I1
I1
ssg72
(dp1099
I4
I1
sI7
I1
ssg74
(dp1100
I0
I1
ssg434
(dp1101
I0
I1
ssg156
(dp1102
I2
I1
ssS'allergies'
p1103
(dp1104
I6
I1
ssS'hirsutism'
p1105
(dp1106
I9
I1
ssg29
(dp1107
I6
I1
ssg33
(dp1108
I8
I1
sI2
I1
sI3
I1
ssg37
(dp1109
I0
I1
sI3
I1
ssg173
(dp1110
I4
I1
sI7
I1
ssg164
(dp1111
I0
I1
sI1
I1
ssg43
(dp1112
I8
I1
ssg133
(dp1113
I3
I1
ssg255
(dp1114
I4
I1
sI6
I1
ssg100
(dp1115
I0
I1
sI1
I1
sI6
I1
sI7
I1
ssg187
(dp1116
I8
I1
ssg23
(dp1117
I4
I1
sI5
I1
sI6
I1
ssg131
(dp1118
I1
I1
ssg355
(dp1119
I9
I1
ssg201
(dp1120
I1
I1
ssg458
(dp1121
I0
I1
sssS'18'
p1122
(dp1123
g271
(dp1124
I9
I1
ssg273
(dp1125
I3
I3
ssS'choledocholithiasis'
p1126
(dp1127
I6
I1
ssg55
(dp1128
I1
I2
sI2
I1
sI3
I2
sI7
I1
ssS'seizure'
p1129
(dp1130
I0
I1
ssg23
(dp1131
I6
I1
ssg755
(dp1132
I6
I1
ssg283
(dp1133
I9
I1
sI2
I1
sI4
I1
ssg857
(dp1134
I9
I1
ssS'hepatitis c'
p1135
(dp1136
I2
I1
sI4
I1
ssg757
(dp1137
I6
I1
ssg72
(dp1138
I4
I1
ssg759
(dp1139
I6
I1
ssg714
(dp1140
I3
I1
ssg76
(dp1141
I8
I1
ssS'seizures'
p1142
(dp1143
I0
I1
ssg235
(dp1144
I1
I1
ssg556
(dp1145
I1
I1
ssS'delirium tremens'
p1146
(dp1147
I0
I1
ssS'lower back pain'
p1148
(dp1149
I8
I1
ssg578
(dp1150
I6
I1
ssg33
(dp1151
I3
I1
ssg170
(dp1152
I1
I1
sI4
I1
ssg37
(dp1153
I0
I1
sI1
I2
sI2
I1
sI3
I2
sI4
I1
sI5
I1
sI7
I1
sI8
I3
ssg154
(dp1154
I4
I1
ssg495
(dp1155
I8
I1
ssg35
(dp1156
I1
I1
ssg106
(dp1157
I6
I1
ssg43
(dp1158
I3
I1
sI4
I1
sI5
I1
ssg771
(dp1159
I6
I1
ssg133
(dp1160
I8
I1
sI5
I1
ssg512
(dp1161
I6
I1
ssS'disease acute'
p1162
(dp1163
I6
I1
ssg458
(dp1164
I0
I1
ssg187
(dp1165
I8
I1
sI3
I1
sI4
I1
sI5
I1
ssg741
(dp1166
I6
I1
ssg9
(dp1167
I5
I1
sI6
I1
ssg201
(dp1168
I0
I1
ssS'amyloidosis'
p1169
(dp1170
I4
I1
sssS'30'
p1171
(dp1172
g542
(dp1173
I0
I1
sI8
I1
sI7
I1
ssg362
(dp1174
I3
I2
sI7
I1
ssg154
(dp1175
I0
I1
ssS'myocardial ischemia'
p1176
(dp1177
I7
I1
ssS'cardiac arrhythmia'
p1178
(dp1179
I0
I1
ssg100
(dp1180
I8
I2
sI2
I1
sI4
I1
sI6
I1
ssg23
(dp1181
I8
I1
sI1
I1
sI2
I1
ssS'tachycardias'
p1182
(dp1183
I1
I1
ssg106
(dp1184
I0
I2
sI1
I1
sI6
I2
ssS'cardiac arrhythmias'
p1185
(dp1186
I0
I1
ssS'premature beats'
p1187
(dp1188
I0
I1
ssg78
(dp1189
I8
I1
sI1
I1
sI2
I1
ssg170
(dp1190
I4
I1
ssg66
(dp1191
I8
I1
ssS'valvular heart disease'
p1192
(dp1193
I8
I1
ssg374
(dp1194
I0
I1
sI1
I2
sI3
I3
sI7
I1
ssS'supraventricular tachycardia'
p1195
(dp1196
I3
I2
ssS'ischemia'
p1197
(dp1198
I7
I1
ssS'premature beat'
p1199
(dp1200
I0
I1
sss.