(dp0
S'24'
p1
(dp2
S'bronchitis'
p3
(dp4
I9
I1
ssS'sti'
p5
(dp6
I8
I1
sI1
I1
ssS'aids'
p7
(dp8
I1
I1
ssS'dyspnea'
p9
(dp10
I3
I1
sI4
I1
sI5
I1
sI6
I1
sI7
I1
ssS'asthma'
p11
(dp12
I6
I1
ssS'copd'
p13
(dp14
I6
I1
ssS'fevers'
p15
(dp16
I8
I1
ssS'flushing'
p17
(dp18
I8
I1
ssS'sid'
p19
(dp20
I0
I1
ssS'obstructive lung disease'
p21
(dp22
I3
I1
ssS'tic'
p23
(dp24
I1
I2
sI6
I1
sI7
I1
ssS'fever'
p25
(dp26
I0
I1
sI1
I1
sI2
I1
sI3
I1
sI5
I1
sI6
I1
sI7
I2
sI8
I1
sI9
I1
ssS'pain'
p27
(dp28
I0
I3
sI8
I1
sI2
I1
sI3
I1
sI7
I2
ssS'emergency'
p29
(dp30
I0
I1
ssS'back pain'
p31
(dp32
I0
I1
ssS'chest pain'
p33
(dp34
I0
I2
sI8
I1
sI2
I1
sI3
I1
ssS'lung disease'
p35
(dp36
I3
I1
ssS'cough'
p37
(dp38
I0
I1
sI1
I1
sI2
I1
sI3
I1
sI4
I1
sI5
I2
sI6
I1
sI7
I1
sI8
I1
sI9
I2
ssS'rheumatic fever'
p39
(dp40
I7
I1
ssS'shortness of breath'
p41
(dp42
I8
I1
ssS'disease'
p43
(dp44
I3
I1
ssS'hemoptysis'
p45
(dp46
I0
I1
sI8
I1
ssS'pneumonia'
p47
(dp48
I6
I1
ssS'chills'
p49
(dp50
I2
I1
sI5
I1
sI6
I1
sI7
I1
sssS'25'
p51
(dp52
S'flank pain'
p53
(dp54
I1
I1
sI6
I1
ssS'edema'
p55
(dp56
I0
I1
sI4
I1
ssS'abdominal pain'
p57
(dp58
I9
I1
ssS'weight loss'
p59
(dp60
I6
I1
ssS'myalgia'
p61
(dp62
I0
I1
sI8
I1
sI3
I1
ssS'arc'
p63
(dp64
I5
I1
ssS'hypertension'
p65
(dp66
I6
I1
ssS'liver disease'
p67
(dp68
I8
I2
ssS'lethargy'
p69
(dp70
I0
I1
ssg43
(dp71
I8
I2
ssS'rash'
p72
(dp73
I9
I1
sI2
I1
sI3
I1
ssS'trauma'
p74
(dp75
I0
I1
sI3
I1
sI4
I1
sI7
I1
ssg19
(dp76
I1
I1
sI6
I1
ssS'tachycardia'
p77
(dp78
I0
I1
ssg23
(dp79
I0
I1
sI1
I1
sI2
I1
sI3
I2
sI4
I1
sI8
I1
ssg25
(dp80
I0
I2
sI2
I1
sI3
I1
sI4
I1
sI5
I1
sI7
I1
sI9
I1
ssg27
(dp81
I0
I1
sI1
I1
sI2
I1
sI3
I1
sI4
I1
sI5
I1
sI6
I1
sI8
I1
sI9
I2
ssg29
(dp82
I0
I1
ssS'arthritis'
p83
(dp84
I3
I1
ssS'deformity'
p85
(dp86
I8
I1
ssS'vomiting'
p87
(dp88
I1
I1
sI6
I1
ssg37
(dp89
I0
I2
sI5
I1
ssS'oral herpes simplex'
p90
(dp91
I7
I1
ssg41
(dp92
I1
I1
sI6
I1
ssg5
(dp93
I1
I1
sI4
I1
sI7
I1
ssS'muscle weakness'
p94
(dp95
I8
I1
ssS'herpes simplex'
p96
(dp97
I7
I1
ssg49
(dp98
I4
I1
sssS'26'
p99
(dp100
S'men i'
p101
(dp102
I1
I1
ssg59
(dp103
I3
I1
ssS't all'
p104
(dp105
I6
I1
ssS'ectopic pregnancy'
p106
(dp107
I0
I1
sI1
I2
sI2
I2
sI3
I2
sI4
I1
sI5
I1
sI7
I1
sI8
I1
sI9
I1
ssS'diabetes mellitus'
p108
(dp109
I5
I1
ssS'hemorrhage'
p110
(dp111
I1
I1
ssS'insulin dependent diabetes mellitus'
p112
(dp113
I5
I1
ssS'abscess'
p114
(dp115
I7
I1
ssS'pelvic pain'
p116
(dp117
I0
I1
ssS'acne'
p118
(dp119
I6
I1
ssS'appendicitis'
p120
(dp121
I0
I1
sI9
I1
sI7
I3
ssS'inflammation'
p122
(dp123
I0
I1
ssg19
(dp124
I0
I1
ssS'shoulder pain'
p125
(dp126
I4
I1
ssS'pelvic inflammatory disease'
p127
(dp128
I7
I1
ssg27
(dp129
I0
I1
sI4
I1
ssS'ovarian cyst'
p130
(dp131
I0
I1
sI7
I1
ssS'infection'
p132
(dp133
I9
I1
ssS'rupture'
p134
(dp135
I0
I1
sI1
I1
sI2
I1
sI3
I1
sI5
I1
sI6
I1
sI7
I1
sI8
I1
ssS'infertility'
p136
(dp137
I8
I3
sI2
I2
sI3
I1
sI4
I1
sI6
I2
ssS'mody'
p138
(dp139
I2
I1
ssg43
(dp140
I7
I1
ssS'cyst'
p141
(dp142
I0
I1
sI7
I1
ssS'obesity'
p143
(dp144
I3
I1
sI6
I1
ssS'endometriosis'
p145
(dp146
I0
I1
sssS'27'
p147
(dp148
S'headache'
p149
(dp150
I1
I1
ssg23
(dp151
I5
I1
ssS'iron deficiency anemia'
p152
(dp153
I8
I1
sI9
I2
sI2
I1
sI7
I1
ssg5
(dp154
I3
I1
sI4
I1
ssS'fatigue'
p155
(dp156
I1
I1
sI3
I1
ssg94
(dp157
I4
I1
ssg19
(dp158
I7
I1
ssS'dizziness'
p159
(dp160
I8
I1
sI1
I1
sI4
I1
ssS'anemia'
p161
(dp162
I1
I1
sI2
I1
sI6
I1
sI7
I2
sI8
I1
sI9
I4
ssS'headaches'
p163
(dp164
I1
I1
sssS'20'
p165
(dp166
S'seizure'
p167
(dp168
I0
I1
ssg5
(dp169
I6
I1
sI7
I1
ssS'parkinsons disease'
p170
(dp171
I3
I1
ssS'blindness'
p172
(dp173
I6
I1
ssS'ataxia'
p174
(dp175
I2
I1
sI4
I2
ssS'dementia'
p176
(dp177
I0
I1
sI2
I1
sI3
I1
sI5
I2
sI7
I2
sI8
I1
ssg9
(dp178
I1
I1
ssS'seizures'
p179
(dp180
I0
I1
ssS'hiv infection'
p181
(dp182
I0
I1
ssS'cortical blindness'
p183
(dp184
I6
I1
ssS'myoclonus'
p185
(dp186
I2
I1
sI4
I1
sI7
I1
ssg19
(dp187
I3
I1
ssS'motor neuron disease'
p188
(dp189
I7
I1
ssS'tachypnea'
p190
(dp191
I1
I1
ssg23
(dp192
I0
I1
sI8
I1
sI4
I1
sI6
I2
sI7
I1
ssg27
(dp193
I1
I1
ssS'confusion'
p194
(dp195
I0
I1
sI3
I1
ssg132
(dp196
I0
I1
ssg33
(dp197
I1
I1
ssS'aphasia'
p198
(dp199
I5
I1
ssS'dyspraxia'
p200
(dp201
I6
I1
ssS'creutzfeldt jakob disease'
p202
(dp203
I6
I1
ssS'tremor'
p204
(dp205
I4
I2
ssS'cerebellar ataxia'
p206
(dp207
I4
I1
ssS'spinocerebellar ataxia'
p208
(dp209
I4
I1
ssS'senile dementia'
p210
(dp211
I7
I1
ssS'myoclonic jerks'
p212
(dp213
I0
I1
sI1
I1
sI3
I1
sI5
I1
sI6
I1
sI7
I1
sI9
I1
ssg43
(dp214
I3
I1
sI6
I1
sI7
I1
ssS'stroke'
p215
(dp216
I8
I1
ssS'delirium'
p217
(dp218
I5
I1
ssS'weight gain'
p219
(dp220
I9
I1
ssS'myoclonic jerk'
p221
(dp222
I0
I1
sI1
I1
sI3
I1
sI5
I1
sI6
I1
sI7
I1
sI9
I1
sssS'21'
p223
(dp224
S'erysipeloid'
p225
(dp226
I8
I1
ssS'sclerosing cholangitis'
p227
(dp228
I5
I1
ssg57
(dp229
I0
I1
ssS'infections'
p230
(dp231
I9
I1
sI7
I1
ssg43
(dp232
I0
I1
sI6
I1
ssS'dehydration'
p233
(dp234
I8
I1
ssg9
(dp235
I3
I1
ssS'syndrome'
p236
(dp237
I1
I1
ssg15
(dp238
I1
I1
ssS'intestinal disease'
p239
(dp240
I6
I1
ssS'diarrhea'
p241
(dp242
I0
I1
sI1
I1
sI3
I1
sI4
I1
sI5
I1
sI6
I1
sI9
I1
ssg72
(dp243
I8
I1
ssg190
(dp244
I3
I1
ssg23
(dp245
I2
I2
ssg25
(dp246
I0
I1
sI1
I1
sI3
I1
sI7
I1
ssg27
(dp247
I0
I1
sI3
I2
ssS'diseases'
p248
(dp249
I0
I1
ssS'flatulence'
p250
(dp251
I2
I1
ssg132
(dp252
I9
I2
sI2
I1
sI5
I1
sI7
I1
ssg33
(dp253
I3
I1
ssg37
(dp254
I3
I1
sI7
I1
ssS'skin rash'
p255
(dp256
I8
I1
ssS'cholangitis'
p257
(dp258
I5
I1
ssg5
(dp259
I0
I2
sI4
I3
sI6
I2
ssg141
(dp260
I4
I1
ssg49
(dp261
I7
I1
ssS'malabsorption syndrome'
p262
(dp263
I1
I1
sssS'22'
p264
(dp265
g25
(dp266
I0
I1
sI3
I1
sI6
I2
ssg27
(dp267
I0
I2
sI1
I1
sI4
I1
sI6
I1
ssg13
(dp268
I3
I1
ssg29
(dp269
I1
I1
ssg41
(dp270
I1
I1
sI2
I2
sI4
I1
ssS'nausea'
p271
(dp272
I4
I1
ssg35
(dp273
I9
I1
ssg43
(dp274
I9
I1
sI6
I1
ssS'joint pain'
p275
(dp276
I6
I1
ssg45
(dp277
I7
I1
ssS'lung diseases'
p278
(dp279
I9
I1
ssg47
(dp280
I3
I1
ssg33
(dp281
I0
I1
ssg248
(dp282
I9
I1
ssS'leprosy'
p283
(dp284
I9
I1
ssS'tuberculosis'
p285
(dp286
I9
I1
ssg19
(dp287
I8
I1
sI1
I1
sI5
I1
ssS'pleural effusion'
p288
(dp289
I1
I1
ssg37
(dp290
I0
I1
sI1
I1
sI2
I2
sI3
I2
sI4
I1
sI6
I1
sI7
I1
sI8
I1
sI9
I1
ssg190
(dp291
I0
I1
ssg9
(dp292
I0
I1
sI1
I1
sssS'23'
p293
(dp294
S'neck pain'
p295
(dp296
I2
I1
sI6
I1
ssS'typhoid fever'
p297
(dp298
I0
I1
ssg37
(dp299
I3
I1
ssS'pulmonary disease'
p300
(dp301
I7
I1
ssg275
(dp302
I0
I1
sI1
I1
ssg43
(dp303
I8
I1
sI7
I2
ssg63
(dp304
I4
I1
ssS'obstructive pulmonary disease'
p305
(dp306
I7
I1
ssg7
(dp307
I2
I1
ssS'muscle pain'
p308
(dp309
I0
I1
ssS'breakbone fever'
p310
(dp311
I5
I1
ssS'septic shock'
p312
(dp313
I7
I1
ssS'thrombocytopenia'
p314
(dp315
I0
I1
sI6
I1
ssS'respiratory sounds'
p316
(dp317
I4
I1
ssg15
(dp318
I0
I1
sI7
I1
ssS'men 1'
p319
(dp320
I4
I1
ssg161
(dp321
I6
I1
ssS'ache neck'
p322
(dp323
I6
I1
ssS'fever dengue'
p324
(dp325
I5
I2
ssg23
(dp326
I7
I1
ssS'high blood pressure'
p327
(dp328
I8
I1
ssg19
(dp329
I8
I1
ssS'infectious disease'
p330
(dp331
I7
I1
ssS'pain joint'
p332
(dp333
I0
I1
ssg149
(dp334
I0
I1
sI1
I1
sI2
I1
sI3
I1
sI6
I1
sI9
I1
ssg25
(dp335
I0
I6
sI1
I1
sI2
I1
sI3
I1
sI4
I1
sI5
I3
sI7
I1
ssg27
(dp336
I0
I2
sI1
I1
sI2
I1
sI3
I1
sI6
I1
sI7
I1
sI8
I1
ssg248
(dp337
I8
I1
sI7
I1
ssg29
(dp338
I6
I1
ssS'typhoid'
p339
(dp340
I0
I1
ssS'burn'
p341
(dp342
I3
I1
ssg132
(dp343
I3
I1
sI6
I1
ssg87
(dp344
I3
I1
ssS'emergencies'
p345
(dp346
I6
I1
ssS'chronic obstructive pulmonary disease'
p347
(dp348
I7
I1
ssg33
(dp349
I8
I1
ssg59
(dp350
I2
I1
ssS'infectious diseases'
p351
(dp352
I7
I1
ssS'respiratory sound'
p353
(dp354
I4
I1
ssg271
(dp355
I3
I1
ssS'leukopenia'
p356
(dp357
I0
I1
sI6
I1
ssS'shock'
p358
(dp359
I5
I1
sI7
I1
ssg236
(dp360
I5
I1
ssg5
(dp361
I2
I1
sI6
I1
ssS'dengue'
p362
(dp363
I5
I3
ssS'dengue fever'
p364
(dp365
I5
I1
ssg49
(dp366
I6
I1
ssg61
(dp367
I7
I1
sssS'28'
p368
(dp369
g25
(dp370
I0
I1
sI4
I2
sI5
I2
sI6
I1
sI7
I1
sI9
I1
ssg27
(dp371
I0
I1
sI1
I1
sI2
I2
sI3
I1
sI4
I1
sI5
I3
sI6
I1
sI7
I1
ssg236
(dp372
I6
I1
ssg29
(dp373
I1
I3
sI3
I1
sI4
I1
sI5
I1
sI7
I1
ssg15
(dp374
I4
I1
sI6
I1
ssS'chest pains'
p375
(dp376
I4
I1
ssg72
(dp377
I9
I1
sI3
I1
ssS'tick bites'
p378
(dp379
I5
I1
ssg5
(dp380
I8
I1
sI4
I1
ssg59
(dp381
I0
I1
ssg9
(dp382
I7
I1
ssg63
(dp383
I6
I1
sI7
I1
ssg33
(dp384
I4
I1
ssg74
(dp385
I0
I1
sI1
I1
sI2
I1
ssS'tick bite'
p386
(dp387
I0
I1
sI5
I1
ssg19
(dp388
I4
I1
sI5
I1
ssg37
(dp389
I0
I1
sI4
I1
ssg23
(dp390
I0
I1
sI2
I1
sI3
I2
sI4
I1
sI5
I1
sI6
I1
sI8
I1
sI9
I1
sssS'29'
p391
(dp392
g25
(dp393
I0
I2
sI1
I1
sI3
I3
sI4
I1
sI6
I2
sI7
I1
sI8
I1
sI9
I1
ssg27
(dp394
I4
I1
ssg255
(dp395
I9
I1
ssS'erythema'
p396
(dp397
I1
I1
sI3
I1
sI5
I2
sI7
I1
ssg55
(dp398
I7
I1
ssg43
(dp399
I0
I1
sI1
I3
sI2
I4
sI4
I2
sI5
I1
sI7
I1
sI8
I1
sI9
I1
ssg72
(dp400
I0
I1
sI1
I1
sI3
I3
sI5
I1
sI6
I1
sI9
I1
ssg5
(dp401
I0
I1
sI1
I1
sI2
I1
sI4
I1
ssS'exanthem'
p402
(dp403
I7
I1
ssS'conjunctivitis'
p404
(dp405
I0
I1
sI1
I1
sI5
I1
sI6
I1
sI7
I1
sI9
I1
ssS'hypotension'
p406
(dp407
I3
I1
ssS'aneurysm'
p408
(dp409
I7
I1
ssg122
(dp410
I1
I1
ssS'kawasaki disease'
p411
(dp412
I0
I1
sI1
I3
sI2
I3
sI4
I2
sI5
I1
sI7
I1
sI8
I1
sI9
I1
ssS'rida'
p413
(dp414
I4
I1
ssS'aneurysms'
p415
(dp416
I7
I1
ssS'hyperemia'
p417
(dp418
I3
I1
ssg23
(dp419
I2
I1
sI3
I1
sI4
I1
sI5
I1
sI6
I1
sssS'1'
p420
(dp421
S'emesis'
p422
(dp423
I0
I1
sI1
I1
sI4
I1
ssS'hyperventilation'
p424
(dp425
I7
I1
ssg406
(dp426
I0
I1
sI1
I1
sI5
I1
ssg27
(dp427
I2
I1
sI5
I1
ssS'bleeding'
p428
(dp429
I4
I2
ssS'acute subdural hematoma'
p430
(dp431
I6
I1
ssS'hematoma'
p432
(dp433
I6
I1
ssg358
(dp434
I7
I3
ssg155
(dp435
I7
I1
ssg5
(dp436
I8
I1
sI9
I1
sI4
I1
ssg25
(dp437
I6
I1
ssg87
(dp438
I2
I1
sI5
I1
ssS'subdural hematoma'
p439
(dp440
I6
I1
ssS'tics'
p441
(dp442
I9
I1
ssS'cardiogenic shock'
p443
(dp444
I7
I3
ssg362
(dp445
I9
I2
ssg204
(dp446
I8
I1
ssg74
(dp447
I6
I1
ssg77
(dp448
I0
I1
sI1
I1
sI4
I1
sI6
I1
sI9
I1
ssg23
(dp449
I9
I1
sI2
I1
sssS'3'
p450
(dp451
S'cramp'
p452
(dp453
I5
I1
ssg288
(dp454
I1
I1
ssS'embolism'
p455
(dp456
I9
I3
ssg55
(dp457
I9
I1
sI3
I1
ssg57
(dp458
I5
I1
ssS'thrombophlebitis'
p459
(dp460
I9
I1
ssg43
(dp461
I5
I1
ssg65
(dp462
I6
I1
ssS'signs and symptoms'
p463
(dp464
I9
I1
ssS'ulcer'
p465
(dp466
I5
I1
ssg108
(dp467
I6
I1
ssg9
(dp468
I0
I1
sI6
I1
sI7
I1
ssS'duodenal ulcer'
p469
(dp470
I5
I1
ssg11
(dp471
I2
I1
ssg29
(dp472
I8
I1
ssS'heart failure'
p473
(dp474
I5
I1
ssS'pulmonary embolism'
p475
(dp476
I9
I3
ssg19
(dp477
I1
I1
ssg77
(dp478
I1
I1
ssg190
(dp479
I0
I1
sI1
I1
ssg23
(dp480
I9
I1
sI2
I1
sI3
I1
ssg25
(dp481
I8
I1
sI1
I1
sI2
I1
sI5
I1
ssg27
(dp482
I0
I2
sI1
I2
sI2
I1
sI3
I1
sI5
I1
sI6
I1
sI7
I1
sI8
I1
ssS'type 2 diabetes mellitus'
p483
(dp484
I6
I1
ssg132
(dp485
I1
I1
ssg33
(dp486
I0
I1
sI8
I1
sI2
I1
sI6
I1
sI7
I1
ssg396
(dp487
I1
I1
ssg37
(dp488
I3
I1
ssg41
(dp489
I8
I1
sI3
I1
ssS'phlebitis'
p490
(dp491
I9
I1
ssg5
(dp492
I9
I1
sI3
I1
sI4
I1
sI5
I1
ssg143
(dp493
I8
I1
sssS'2'
p494
(dp495
S'influenza'
p496
(dp497
I1
I1
ssg25
(dp498
I0
I1
sI1
I1
sI2
I1
sI3
I1
sI4
I1
sI7
I1
sI8
I1
sI9
I1
ssS'pneumonias'
p499
(dp500
I3
I1
ssg49
(dp501
I3
I1
ssS'arthralgia'
p502
(dp503
I3
I1
ssS'viral pneumonias'
p504
(dp505
I3
I1
ssg5
(dp506
I9
I1
sI2
I3
sI4
I1
sI5
I2
ssg132
(dp507
I8
I1
ssg61
(dp508
I3
I1
ssg9
(dp509
I4
I1
ssg47
(dp510
I1
I2
sI3
I2
ssS'viral pneumonia'
p511
(dp512
I3
I2
ssS'athletes foot'
p513
(dp514
I8
I1
ssg463
(dp515
I3
I1
ssg96
(dp516
I1
I1
ssg7
(dp517
I9
I1
ssS'leukemia'
p518
(dp519
I7
I1
ssg37
(dp520
I0
I1
sI1
I1
sI2
I1
sI3
I1
sI4
I1
sI5
I1
sI7
I1
sI9
I1
ssS'nevi'
p521
(dp522
I6
I1
ssS'neutropenia'
p523
(dp524
I7
I1
ssg23
(dp525
I9
I2
sI2
I1
sI5
I2
sssS'5'
p526
(dp527
g496
(dp528
I8
I1
ssg275
(dp529
I0
I2
sI3
I1
ssg5
(dp530
I0
I1
sI1
I2
sI2
I1
sI8
I1
sI9
I1
ssS'arthralgias'
p531
(dp532
I9
I1
ssg236
(dp533
I6
I1
ssg122
(dp534
I1
I1
sI2
I1
sI4
I1
sI5
I1
sI6
I1
ssg19
(dp535
I2
I1
ssg330
(dp536
I4
I1
ssg23
(dp537
I0
I4
sI1
I1
sI4
I1
sI7
I4
sI8
I3
sI9
I1
ssg25
(dp538
I1
I1
sI2
I1
sI4
I2
sI9
I3
sI7
I3
ssg27
(dp539
I0
I2
sI3
I2
sI5
I1
ssS'adult onset stills disease'
p540
(dp541
I9
I1
ssS'rheumatoid arthritis'
p542
(dp543
I0
I1
sI5
I2
ssg83
(dp544
I0
I2
sI2
I3
sI4
I4
sI5
I3
sI6
I2
sI7
I1
sI8
I3
sI9
I2
ssg132
(dp545
I8
I1
sI2
I1
sI4
I1
sI6
I1
ssg87
(dp546
I2
I1
ssg39
(dp547
I9
I1
sI4
I1
sI7
I3
ssS'reactive arthritis'
p548
(dp549
I2
I3
sI4
I1
sI6
I2
ssg502
(dp550
I9
I2
sI4
I1
ssg43
(dp551
I9
I1
sI4
I1
sI5
I1
sI7
I2
ssS'acute rheumatic fever'
p552
(dp553
I9
I1
sI4
I1
ssS'aortic regurgitation'
p554
(dp555
I7
I1
sssS'4'
p556
(dp557
g23
(dp558
I4
I1
ssg27
(dp559
I0
I1
sI1
I1
sI3
I1
sI4
I1
sI5
I1
sI6
I1
sI7
I1
ssg248
(dp560
I0
I1
ssg29
(dp561
I3
I1
ssS'fibroma'
p562
(dp563
I8
I1
ssg43
(dp564
I0
I1
sI9
I2
sI2
I1
sI5
I1
ssg5
(dp565
I2
I1
ssg25
(dp566
I7
I1
ssS'ischemic heart disease'
p567
(dp568
I9
I2
sI5
I1
ssg63
(dp569
I7
I1
ssg33
(dp570
I0
I1
sI1
I1
sI3
I1
sI4
I1
sI5
I1
sI6
I1
ssg65
(dp571
I0
I1
ssS'prinzmetals angina'
p572
(dp573
I6
I1
ssS'cardiac dysrhythmia'
p574
(dp575
I3
I1
ssg7
(dp576
I2
I1
ssS'left ventricular dysfunction'
p577
(dp578
I0
I1
ssS'ventricular dysfunction'
p579
(dp580
I0
I1
ssg77
(dp581
I0
I1
sI2
I1
sI3
I2
sI7
I1
ssS'heart disease'
p582
(dp583
I9
I2
sI5
I1
ssS'sinus tachycardia'
p584
(dp585
I0
I1
sI2
I1
sI3
I1
ssS'ventricular tachycardia'
p586
(dp587
I3
I1
sssS'7'
p588
(dp589
g236
(dp590
I9
I2
ssg5
(dp591
I9
I1
ssg59
(dp592
I0
I1
sI2
I1
ssS'phoria'
p593
(dp594
I5
I1
ssg155
(dp595
I1
I1
sI2
I2
sI4
I1
sI5
I2
sI7
I1
sI8
I1
ssS'anhedonia'
p596
(dp597
I0
I1
sI1
I1
sI2
I1
sI3
I1
sI4
I1
sI7
I1
ssg23
(dp598
I9
I1
sI2
I1
sssS'6'
p599
(dp600
S'indigestion'
p601
(dp602
I0
I1
ssg441
(dp603
I4
I1
ssg101
(dp604
I9
I1
ssS'hyperthyroidism'
p605
(dp606
I8
I1
sI9
I2
ssS'ophthalmia'
p607
(dp608
I2
I1
ssg219
(dp609
I5
I1
ssg241
(dp610
I8
I1
ssg5
(dp611
I0
I1
sI3
I1
sI4
I1
sI6
I1
ssg59
(dp612
I0
I2
sI1
I1
sI2
I1
sI3
I1
sI4
I1
sI5
I1
sI8
I3
sI9
I1
ssg43
(dp613
I8
I1
sI1
I2
sI9
I1
ssg155
(dp614
I4
I1
sI5
I1
ssg463
(dp615
I1
I2
ssg7
(dp616
I4
I1
ssg204
(dp617
I1
I1
sI4
I1
sI9
I1
ssS'graves disease'
p618
(dp619
I8
I1
sI1
I2
sI9
I1
ssg271
(dp620
I0
I1
ssS'exophthalmos'
p621
(dp622
I8
I1
ssS'graves ophthalmopathy'
p623
(dp624
I1
I1
ssS'hypoparathyroidism'
p625
(dp626
I5
I1
ssg23
(dp627
I9
I1
sI3
I1
sI4
I1
sI6
I1
sI7
I1
sssS'9'
p628
(dp629
g55
(dp630
I0
I1
sI2
I1
sI4
I1
sI5
I1
sI8
I1
sI9
I1
ssg57
(dp631
I2
I1
ssg275
(dp632
I1
I1
ssg61
(dp633
I0
I1
sI1
I1
sI2
I1
sI3
I1
sI8
I1
sI9
I1
ssg63
(dp634
I8
I1
ssg7
(dp635
I4
I1
ssg37
(dp636
I9
I1
ssg241
(dp637
I8
I1
sI2
I2
ssg72
(dp638
I1
I1
ssg74
(dp639
I4
I1
ssS'trichinellosis'
p640
(dp641
I8
I1
sI9
I1
sI5
I1
ssg149
(dp642
I1
I2
sI3
I1
sI9
I1
ssg25
(dp643
I0
I1
sI1
I3
sI2
I1
sI3
I1
sI4
I1
sI5
I1
sI6
I1
sI8
I1
sI9
I1
ssg27
(dp644
I1
I2
sI2
I1
sI7
I1
ssS'meningitis'
p645
(dp646
I6
I1
ssg132
(dp647
I9
I1
sI5
I1
sI7
I1
ssg155
(dp648
I1
I1
ssg396
(dp649
I1
I1
ssS'follicular lymphoma'
p650
(dp651
I7
I1
ssS'lymphoma'
p652
(dp653
I7
I1
ssS'meningoencephalitis'
p654
(dp655
I6
I2
ssg230
(dp656
I9
I1
sI7
I1
ssg5
(dp657
I4
I1
ssg47
(dp658
I2
I1
ssS'eosinophilia'
p659
(dp660
I0
I1
sI8
I1
ssg23
(dp661
I8
I1
ssS'encephalitis'
p662
(dp663
I6
I2
sssS'8'
p664
(dp665
S'apnea obstructive sleep'
p666
(dp667
I2
I1
ssS'failure to thrive'
p668
(dp669
I0
I1
sI9
I1
sI2
I1
ssS'apnea'
p670
(dp671
I1
I3
sI2
I3
sI3
I2
sI4
I4
ssg236
(dp672
I1
I1
ssS'sleep apnea obstructive'
p673
(dp674
I2
I1
ssS'neurological disorder'
p675
(dp676
I8
I1
ssS'sleep apnea'
p677
(dp678
I1
I2
sI2
I3
sI3
I2
sI4
I4
ssS'mouth breathing'
p679
(dp680
I1
I1
ssS'obstructive sleep apnea'
p681
(dp682
I1
I1
sI2
I2
sI3
I1
sI4
I3
ssg23
(dp683
I8
I2
ssg596
(dp684
I0
I1
ssS'prolapse'
p685
(dp686
I9
I1
ssg155
(dp687
I0
I1
ssS'snoring'
p688
(dp689
I3
I1
sI4
I1
ssS'rectal prolapse'
p690
(dp691
I9
I1
ssS'neurological disorders'
p692
(dp693
I8
I1
sssS'11'
p694
(dp695
S'thyroid nodule'
p696
(dp697
I2
I1
ssg25
(dp698
I9
I1
ssg27
(dp699
I9
I1
sI2
I1
ssS'constipation'
p700
(dp701
I0
I1
sI8
I1
sI5
I1
ssg29
(dp702
I9
I1
sI7
I1
ssS'hot flashes'
p703
(dp704
I3
I1
ssg241
(dp705
I8
I1
ssg5
(dp706
I0
I1
sI8
I1
sI4
I1
sI5
I1
sI9
I1
ssg72
(dp707
I4
I1
ssS'calciphylaxis'
p708
(dp709
I4
I1
ssg295
(dp710
I2
I1
ssg404
(dp711
I1
I1
ssg33
(dp712
I9
I1
ssg155
(dp713
I0
I1
sI2
I1
ssg122
(dp714
I1
I1
ssg7
(dp715
I4
I1
ssg219
(dp716
I5
I1
ssg23
(dp717
I5
I1
ssg69
(dp718
I5
I1
ssg396
(dp719
I4
I1
sssS'10'
p720
(dp721
S'dyspareunia'
p722
(dp723
I6
I1
ssg428
(dp724
I2
I1
sI3
I1
sI6
I1
ssg57
(dp725
I8
I1
sI3
I1
ssS'fibroid'
p726
(dp727
I6
I1
ssg63
(dp728
I8
I1
ssg106
(dp729
I0
I1
sI3
I1
sI4
I1
sI5
I1
sI6
I1
sI7
I1
sI9
I2
ssS'fibroids'
p730
(dp731
I6
I1
ssg23
(dp732
I9
I1
ssS'ectopic pregnancies'
p733
(dp734
I9
I1
ssg116
(dp735
I6
I1
ssS'dysmenorrhea'
p736
(dp737
I0
I1
sI1
I1
sI2
I1
sI4
I1
sI6
I1
ssg703
(dp738
I3
I1
ssg19
(dp739
I9
I1
ssS'pregnancy complications'
p740
(dp741
I5
I1
ssS'pregnancy complication'
p742
(dp743
I5
I1
ssg25
(dp744
I8
I1
ssg27
(dp745
I8
I2
sI3
I1
sI6
I1
ssS'menorrhagia'
p746
(dp747
I0
I1
sI1
I1
sI4
I1
sI6
I1
ssg161
(dp748
I6
I1
ssg136
(dp749
I0
I1
sI1
I1
sI5
I2
sI6
I1
ssS'bleeding uterine'
p750
(dp751
I3
I1
ssS'metrorrhagia'
p752
(dp753
I0
I1
sI1
I1
sI2
I1
ssS'amenorrhea'
p754
(dp755
I3
I1
ssg49
(dp756
I8
I1
ssg145
(dp757
I6
I1
sssS'13'
p758
(dp759
g295
(dp760
I7
I1
ssg496
(dp761
I9
I3
ssS'dysphagia'
p762
(dp763
I0
I1
sI2
I1
sI3
I1
sI4
I1
sI5
I1
sI6
I1
sI7
I1
sI9
I1
ssg463
(dp764
I1
I1
ssg37
(dp765
I0
I2
sI2
I1
ssS'dysphonia'
p766
(dp767
I5
I1
ssS'hoarseness'
p768
(dp769
I0
I1
ssg23
(dp770
I6
I1
sI7
I1
ssg25
(dp771
I0
I1
sI1
I3
sI2
I1
sI3
I1
sI4
I1
sI5
I1
sI7
I1
sI8
I1
sI9
I1
ssg27
(dp772
I5
I1
sI7
I1
ssg29
(dp773
I9
I1
sI7
I1
ssg132
(dp774
I0
I1
sI4
I1
sI5
I3
ssg87
(dp775
I2
I1
ssS'cyanosis'
p776
(dp777
I0
I1
ssS'bacterial infection'
p778
(dp779
I0
I1
ssg353
(dp780
I0
I2
ssS'trismus'
p781
(dp782
I8
I1
ssg230
(dp783
I4
I1
ssg5
(dp784
I9
I1
sI4
I1
sI6
I1
ssS'epiglottitis'
p785
(dp786
I1
I2
sI3
I1
sI4
I2
sI6
I2
sI9
I2
ssS'respiratory tract infection'
p787
(dp788
I5
I2
ssg49
(dp789
I8
I1
sssS'12'
p790
(dp791
g295
(dp792
I6
I1
ssg53
(dp793
I0
I1
ssg55
(dp794
I6
I1
ssg59
(dp795
I6
I1
ssg61
(dp796
I0
I1
sI5
I1
ssS'papilloma'
p797
(dp798
I1
I1
ssg63
(dp799
I8
I1
sI7
I1
ssg65
(dp800
I0
I1
ssg241
(dp801
I9
I1
sI5
I1
ssg72
(dp802
I4
I1
ssg404
(dp803
I8
I1
ssS'neoplasm'
p804
(dp805
I1
I1
ssg122
(dp806
I8
I1
ssg19
(dp807
I0
I1
ssg149
(dp808
I0
I1
sI1
I1
sI2
I1
sI3
I1
sI4
I1
sI5
I1
sI6
I1
sI7
I1
sI9
I1
ssg25
(dp809
I1
I1
sI2
I2
sI3
I1
sI4
I1
sI5
I1
sI6
I1
sI7
I1
sI8
I1
sI9
I1
ssg27
(dp810
I0
I1
sI8
I1
sI4
I1
sI6
I1
ssg645
(dp811
I6
I1
ssg29
(dp812
I5
I1
sI7
I1
ssg87
(dp813
I5
I2
ssg155
(dp814
I2
I1
sI4
I1
ssg275
(dp815
I4
I1
ssg37
(dp816
I1
I1
sI9
I1
ssg41
(dp817
I0
I1
ssg5
(dp818
I0
I1
sI2
I1
sI6
I1
ssg49
(dp819
I1
I1
sssS'15'
p820
(dp821
S'hypercholesterolemia'
p822
(dp823
I7
I1
ssg43
(dp824
I2
I1
ssS'esrd'
p825
(dp826
I2
I1
ssg65
(dp827
I0
I1
sI1
I1
sI4
I1
sI9
I1
sI7
I1
ssg108
(dp828
I2
I1
ssS'end stage renal disease'
p829
(dp830
I2
I1
ssg9
(dp831
I0
I1
sI2
I1
ssg236
(dp832
I4
I1
ssS'intermittent claudication'
p833
(dp834
I9
I1
ssg190
(dp835
I0
I1
ssg149
(dp836
I5
I1
ssS'neurologic disorder'
p837
(dp838
I4
I1
ssg27
(dp839
I0
I1
sI2
I1
ssg29
(dp840
I0
I1
sI4
I1
ssg194
(dp841
I1
I1
ssg33
(dp842
I0
I1
ssS'neurologic disorders'
p843
(dp844
I4
I1
ssg41
(dp845
I8
I1
sI3
I1
sI5
I1
ssg5
(dp846
I8
I2
sI1
I1
sI3
I2
sI4
I1
sI9
I1
ssg215
(dp847
I0
I1
ssS'hypertensive retinopathy'
p848
(dp849
I5
I1
ssg23
(dp850
I3
I1
sI4
I1
sssS'14'
p851
(dp852
S'g6pd deficiency'
p853
(dp854
I8
I1
ssg248
(dp855
I8
I1
ssS'coagulation protein disorders'
p856
(dp857
I7
I1
ssS'coagulation protein disorder'
p858
(dp859
I7
I1
ssg152
(dp860
I9
I1
ssg43
(dp861
I8
I1
ssg5
(dp862
I3
I1
ssg523
(dp863
I9
I1
ssS'fanconi anemia'
p864
(dp865
I7
I1
ssg19
(dp866
I0
I1
sI1
I1
sI2
I1
ssg23
(dp867
I3
I1
ssg161
(dp868
I0
I1
sI1
I1
sI2
I1
sI4
I1
sI5
I1
sI6
I1
sI7
I1
sI9
I2
sssS'17'
p869
(dp870
g5
(dp871
I4
I1
sI5
I1
sI6
I2
sI7
I1
ssg797
(dp872
I0
I1
sI8
I1
sI3
I2
sI5
I1
ssg63
(dp873
I9
I1
ssg7
(dp874
I3
I1
ssS'men 3'
p875
(dp876
I6
I1
ssg23
(dp877
I6
I1
sssS'16'
p878
(dp879
g11
(dp880
I3
I1
ssg29
(dp881
I2
I1
sI5
I1
ssS'hives'
p882
(dp883
I4
I1
ssS'allergy'
p884
(dp885
I3
I1
ssg5
(dp886
I9
I1
ssS'head injuries'
p887
(dp888
I5
I1
ssg285
(dp889
I5
I1
ssg19
(dp890
I3
I1
sI4
I1
ssg7
(dp891
I8
I1
ssS'chancroid'
p892
(dp893
I5
I1
ssg23
(dp894
I1
I1
sssS'19'
p895
(dp896
g295
(dp897
I0
I1
ssg55
(dp898
I7
I1
ssg300
(dp899
I9
I1
sI6
I2
ssg59
(dp900
I0
I1
sI1
I1
sI2
I1
sI3
I1
sI5
I1
sI8
I1
ssg5
(dp901
I0
I1
sI3
I2
ssg65
(dp902
I4
I1
ssg305
(dp903
I9
I1
sI6
I2
ssS'cor pulmonale'
p904
(dp905
I4
I1
ssg7
(dp906
I0
I1
ssS'osteoporosis'
p907
(dp908
I1
I1
ssg11
(dp909
I4
I1
ssg29
(dp910
I7
I1
ssg473
(dp911
I5
I1
ssg21
(dp912
I9
I1
ssS'chronic obstructive lung disease'
p913
(dp914
I9
I1
ssg9
(dp915
I0
I1
sI1
I1
sI2
I1
sI4
I1
sI5
I1
sI7
I1
sI8
I1
ssg190
(dp916
I9
I1
ssg149
(dp917
I0
I1
ssg25
(dp918
I0
I1
sI8
I1
sI2
I1
ssg27
(dp919
I0
I1
ssg248
(dp920
I7
I1
ssg13
(dp921
I9
I2
sI6
I1
ssS'acute respiratory distress syndrome'
p922
(dp923
I7
I1
ssS'pulmonary edema'
p924
(dp925
I7
I1
ssg35
(dp926
I9
I1
ssS'critically ill'
p927
(dp928
I8
I1
ssg37
(dp929
I0
I1
sI1
I1
sI2
I1
sI3
I2
sI4
I1
sI5
I2
sI6
I1
sI8
I1
sI9
I1
ssg236
(dp930
I8
I1
sI7
I1
ssg41
(dp931
I3
I1
ssg43
(dp932
I0
I1
sI9
I2
sI6
I2
sI7
I1
ssg45
(dp933
I3
I1
ssg47
(dp934
I7
I1
ssg347
(dp935
I9
I1
sI6
I2
ssg143
(dp936
I4
I1
ssg23
(dp937
I0
I1
sI8
I1
sI3
I1
ssS'adult respiratory distress syndrome'
p938
(dp939
I8
I1
sssS'18'
p940
(dp941
g114
(dp942
I2
I1
ssg41
(dp943
I3
I1
ssg25
(dp944
I9
I1
ssg27
(dp945
I9
I1
sI4
I1
sI6
I1
ssg236
(dp946
I8
I1
ssg455
(dp947
I6
I1
ssg473
(dp948
I3
I2
ssg55
(dp949
I0
I1
sI1
I5
sI3
I3
sI4
I1
sI6
I1
sI7
I2
sI8
I1
ssg5
(dp950
I8
I1
sI2
I1
sI3
I1
sI5
I1
ssg924
(dp951
I3
I1
sI6
I1
ssg43
(dp952
I1
I1
ssS'hyperlipidemia'
p953
(dp954
I5
I1
ssg63
(dp955
I9
I1
ssg33
(dp956
I6
I1
ssg155
(dp957
I3
I1
ssS'marfans syndrome'
p958
(dp959
I8
I1
ssg7
(dp960
I2
I1
ssS'lymphedema'
p961
(dp962
I3
I1
ssg9
(dp963
I0
I1
sI3
I1
sI5
I1
sI6
I1
sI8
I1
sI9
I1
sssS'30'
p964
(dp965
g25
(dp966
I9
I1
sI6
I1
ssg27
(dp967
I1
I1
sI2
I1
sI3
I1
sI4
I3
sI6
I2
sI7
I1
sI8
I1
sI9
I1
ssg29
(dp968
I8
I1
sI7
I1
ssS'dislocations'
p969
(dp970
I2
I1
sI7
I1
ssS'shoulder dislocation'
p971
(dp972
I8
I1
sI1
I2
ssg63
(dp973
I6
I1
ssg74
(dp974
I1
I1
ssg125
(dp975
I4
I1
ssg19
(dp976
I1
I1
sI2
I1
sI5
I1
sI9
I1
ssS'dislocation'
p977
(dp978
I8
I1
sI1
I4
sI2
I1
sI5
I1
sI7
I1
ssg396
(dp979
I8
I1
sss.