(dp0
S'24'
p1
(dp2
S'rest'
p3
(dp4
I7
I1
ssS'asthma'
p5
(dp6
I6
I1
ssS'stent'
p7
(dp8
I3
I1
ssS'chest'
p9
(dp10
I0
I2
sI1
I1
sI2
I1
sI3
I1
sI4
I1
sI5
I1
sI6
I1
sI8
I3
sI9
I1
ssS'obstructive lung disease'
p11
(dp12
I3
I1
ssS'woman'
p13
(dp14
I1
I1
sI4
I1
sI7
I1
ssS'emergency'
p15
(dp16
I0
I1
ssS'rna'
p17
(dp18
I8
I1
sI0
I1
ssS'tens'
p19
(dp20
I4
I1
ssS'chest pain'
p21
(dp22
I0
I2
sI8
I1
sI2
I1
sI3
I1
ssS'affect'
p23
(dp24
I6
I1
ssS'school'
p25
(dp26
I0
I1
ssS'eva'
p27
(dp28
I3
I1
ssS'hemoptysis'
p29
(dp30
I0
I1
sI8
I1
ssS'ears'
p31
(dp32
I9
I1
sI4
I1
ssS'set'
p33
(dp34
I5
I1
sI7
I1
ssS'art'
p35
(dp36
I0
I1
sI7
I1
ssS'back'
p37
(dp38
I0
I1
ssS'sti'
p39
(dp40
I8
I1
sI1
I1
ssS'aids'
p41
(dp42
I1
I1
ssS'dic'
p43
(dp44
I8
I1
sI3
I1
ssS'insurance'
p45
(dp46
I0
I1
ssS'fevers'
p47
(dp48
I8
I1
ssS'iscom'
p49
(dp50
I0
I1
ssS'ice'
p51
(dp52
I1
I1
sI9
I1
ssS'health'
p53
(dp54
I0
I1
sI9
I1
ssS'flushing'
p55
(dp56
I8
I1
ssS'medicine'
p57
(dp58
I3
I1
ssS'nurse'
p59
(dp60
I6
I2
ssS'prod'
p61
(dp62
I2
I1
sI4
I1
sI5
I2
sI6
I1
ssS'pea'
p63
(dp64
I9
I1
ssS'dde'
p65
(dp66
I2
I1
ssS'patient'
p67
(dp68
I0
I2
sI1
I1
sI3
I1
sI6
I2
sI7
I1
sI8
I1
sI9
I1
ssS'lymphocyte'
p69
(dp70
I1
I1
ssS'men'
p71
(dp72
I0
I1
ssS'cough'
p73
(dp74
I0
I1
sI1
I1
sI2
I1
sI3
I1
sI4
I1
sI5
I2
sI6
I1
sI7
I1
sI8
I1
sI9
I2
ssS'rheumatic fever'
p75
(dp76
I7
I1
ssS'sputum'
p77
(dp78
I4
I1
sI6
I1
ssS'oman'
p79
(dp80
I1
I1
sI4
I1
sI7
I1
ssS'ids'
p81
(dp82
I1
I1
ssS'logic'
p83
(dp84
I5
I1
ssS'chills'
p85
(dp86
I2
I1
sI5
I1
sI6
I1
sI7
I1
ssS'amber'
p87
(dp88
I6
I1
ssS'rheum'
p89
(dp90
I7
I1
ssS'respirator'
p91
(dp92
I3
I1
ssS'lung'
p93
(dp94
I1
I1
sI3
I1
sI5
I1
ssS'emergency department'
p95
(dp96
I0
I1
ssS'sounds'
p97
(dp98
I0
I1
sI8
I1
sI2
I1
sI6
I1
sI9
I1
ssS'dyspnea'
p99
(dp100
I3
I1
sI4
I1
sI5
I1
sI6
I1
sI7
I1
ssS'chi'
p101
(dp102
I1
I1
sI2
I1
sI3
I1
sI5
I1
sI6
I2
sI7
I1
sI9
I1
ssS'hospital'
p103
(dp104
I9
I1
ssS'survival rate'
p105
(dp106
I5
I1
ssS'percussion'
p107
(dp108
I0
I1
sI5
I1
sI6
I1
ssS'basil'
p109
(dp110
I1
I1
ssS'copd'
p111
(dp112
I6
I1
ssS'lung disease'
p113
(dp114
I3
I1
ssS'lymph'
p115
(dp116
I1
I1
ssS'ear'
p117
(dp118
I0
I1
sI1
I1
sI2
I1
sI3
I1
sI4
I3
sI5
I2
sI6
I1
sI7
I3
sI8
I1
sI9
I4
ssS'physical examination'
p119
(dp120
I4
I1
ssS'sound'
p121
(dp122
I0
I1
sI8
I1
sI2
I1
sI6
I1
sI9
I1
ssS'x ray'
p123
(dp124
I9
I1
ssS'health insurance'
p125
(dp126
I0
I1
ssS'bee'
p127
(dp128
I9
I1
ssS'pneumonia'
p129
(dp130
I6
I1
ssS'patients'
p131
(dp132
I1
I1
ssS'un'
p133
(dp134
I0
I1
sI1
I2
sI2
I1
sI3
I1
sI5
I1
sI6
I1
sI8
I1
sI9
I1
ssS'aid'
p135
(dp136
I1
I1
ssS'abstracts'
p137
(dp138
I8
I1
ssS'history'
p139
(dp140
I7
I1
ssS'heart'
p141
(dp142
I7
I1
ssS'bronchitis'
p143
(dp144
I9
I1
ssS'ant'
p145
(dp146
I3
I1
ssS'rat'
p147
(dp148
I3
I2
sI5
I1
ssS'breathing'
p149
(dp150
I4
I1
ssS'respiratory medicine'
p151
(dp152
I3
I1
ssS'id'
p153
(dp154
I0
I1
sI1
I2
ssS'tin'
p155
(dp156
I8
I1
ssS'role'
p157
(dp158
I9
I1
ssS'sid'
p159
(dp160
I0
I1
ssS'survival'
p161
(dp162
I5
I1
ssS'tic'
p163
(dp164
I1
I2
sI6
I1
sI7
I1
ssS'fever'
p165
(dp166
I0
I1
sI1
I1
sI2
I1
sI3
I1
sI5
I1
sI6
I1
sI7
I2
sI8
I1
sI9
I1
ssS'pain'
p167
(dp168
I0
I3
sI8
I1
sI2
I1
sI3
I1
sI7
I2
ssS'back pain'
p169
(dp170
I0
I1
ssS'who'
p171
(dp172
I6
I1
ssS'amination'
p173
(dp174
I9
I1
sI4
I1
sI5
I1
ssS'lymphocyte count'
p175
(dp176
I1
I1
ssS'physic'
p177
(dp178
I3
I1
sI4
I1
ssS'bronchi'
p179
(dp180
I9
I1
sI6
I1
ssS'shortness of breath'
p181
(dp182
I8
I1
ssS'cat'
p183
(dp184
I3
I1
ssS'disease'
p185
(dp186
I3
I1
ssS'diagnosis'
p187
(dp188
I9
I1
sI2
I1
sssS'25'
p189
(dp190
S'flank pain'
p191
(dp192
I1
I1
sI6
I1
ssS'thigh'
p193
(dp194
I8
I1
sI4
I1
ssS'edema'
p195
(dp196
I0
I1
sI4
I1
ssS'child'
p197
(dp198
I0
I1
ssS'urine'
p199
(dp200
I1
I1
sI9
I1
ssS'weight loss'
p201
(dp202
I6
I1
ssS'arm'
p203
(dp204
I8
I1
sI9
I1
sI2
I1
ssS'bomb'
p205
(dp206
I3
I1
ssg9
(dp207
I5
I1
ssS'rash'
p208
(dp209
I9
I1
sI2
I1
sI3
I1
ssS'writing'
p210
(dp211
I2
I1
ssS'imp'
p212
(dp213
I7
I1
ssS'parents'
p214
(dp215
I7
I1
ssS'treatment'
p216
(dp217
I9
I1
ssS'cations'
p218
(dp219
I6
I1
ssg53
(dp220
I2
I1
sI4
I1
ssS'incidental finding'
p221
(dp222
I5
I1
ssS'leukocytes'
p223
(dp224
I1
I1
ssg13
(dp225
I1
I1
sI3
I1
sI5
I1
sI6
I1
sI7
I1
ssS'risk'
p226
(dp227
I9
I1
ssg15
(dp228
I0
I1
ssg17
(dp229
I3
I1
ssg19
(dp230
I6
I1
ssS'breast'
p231
(dp232
I4
I1
ssg43
(dp233
I8
I1
sI3
I1
sI6
I1
ssS'sclera'
p234
(dp235
I9
I1
ssg31
(dp236
I2
I1
ssS'lethargy'
p237
(dp238
I0
I1
ssS'abdominal pain'
p239
(dp240
I9
I1
ssS'erythrocytes'
p241
(dp242
I1
I1
ssg39
(dp243
I1
I1
sI4
I1
sI7
I1
ssS'arc'
p244
(dp245
I5
I1
ssS'explosion'
p246
(dp247
I3
I1
ssS'bacteria'
p248
(dp249
I1
I1
ssS'mus'
p250
(dp251
I8
I1
ssg51
(dp252
I4
I1
ssS'xray'
p253
(dp254
I1
I1
ssS'trauma'
p255
(dp256
I0
I1
sI3
I1
sI4
I1
sI7
I1
ssg57
(dp257
I3
I1
ssg61
(dp258
I0
I1
ssg65
(dp259
I0
I1
ssg67
(dp260
I8
I3
sI9
I1
sI4
I1
ssS'parent'
p261
(dp262
I7
I1
ssS'leg'
p263
(dp264
I0
I1
sI2
I1
ssg71
(dp265
I8
I1
sI9
I1
ssS'vomiting'
p266
(dp267
I1
I1
sI6
I1
ssS'let'
p268
(dp269
I0
I1
ssg73
(dp270
I0
I2
sI5
I1
ssg79
(dp271
I1
I1
sI3
I1
sI5
I1
sI6
I1
sI7
I1
ssS'new england'
p272
(dp273
I3
I1
ssS'muscle weakness'
p274
(dp275
I8
I1
ssS'chive'
p276
(dp277
I5
I1
ssg85
(dp278
I4
I1
ssS'arms'
p279
(dp280
I2
I1
ssS'newborn'
p281
(dp282
I1
I1
sI6
I1
ssS'liver disease'
p283
(dp284
I8
I2
ssS'england'
p285
(dp286
I3
I1
ssg97
(dp287
I5
I1
ssg35
(dp288
I3
I2
ssg101
(dp289
I0
I1
sI4
I1
sI5
I1
ssS'erythrocyte'
p290
(dp291
I1
I1
ssS'dom'
p292
(dp293
I9
I1
ssS'ankle'
p294
(dp295
I9
I1
ssS'tachycardia'
p296
(dp297
I0
I1
ssS'legs'
p298
(dp299
I2
I1
ssS'war'
p300
(dp301
I9
I1
ssS'emergency room'
p302
(dp303
I0
I1
ssS'liver'
p304
(dp305
I8
I2
ssg115
(dp306
I2
I1
ssg117
(dp307
I0
I1
sI1
I2
sI2
I1
sI3
I2
sI4
I1
sI5
I3
sI6
I3
sI7
I2
sI8
I1
sI9
I1
ssg121
(dp308
I5
I1
ssS'physician'
p309
(dp310
I7
I2
ssS'skull'
p311
(dp312
I1
I1
ssS'work'
p313
(dp314
I4
I1
ssS'myalgia'
p315
(dp316
I0
I1
sI8
I1
sI3
I1
ssg183
(dp317
I9
I2
sI6
I1
ssg131
(dp318
I4
I1
ssg133
(dp319
I3
I1
sI5
I1
ssS'herpes simplex'
p320
(dp321
I7
I1
ssS'h 7'
p322
(dp323
I2
I1
ssg139
(dp324
I0
I1
sI2
I1
sI4
I1
sI5
I2
sI7
I1
sI8
I1
sI9
I1
ssS'ions'
p325
(dp326
I8
I1
sI1
I1
sI6
I1
sI7
I1
ssS'breast feeding'
p327
(dp328
I4
I1
ssS'boston'
p329
(dp330
I3
I1
ssS'pons'
p331
(dp332
I4
I1
ssg145
(dp333
I6
I1
ssS'cardia'
p334
(dp335
I0
I1
ssS'hypertension'
p336
(dp337
I6
I1
ssS'mya'
p338
(dp339
I0
I1
sI8
I1
sI3
I1
ssS'tan'
p340
(dp341
I3
I1
ssS'archive'
p342
(dp343
I5
I1
ssS'leukocyte'
p344
(dp345
I1
I1
ssS'hiv'
p346
(dp347
I5
I1
ssS'inr'
p348
(dp349
I9
I1
ssg153
(dp350
I1
I1
sI4
I1
sI5
I1
sI6
I1
sI8
I1
sI9
I1
ssg155
(dp351
I1
I1
sI2
I1
sI6
I1
ssg159
(dp352
I1
I1
sI6
I1
ssg163
(dp353
I0
I1
sI1
I1
sI2
I1
sI3
I2
sI4
I1
sI8
I1
ssS'lan'
p354
(dp355
I1
I1
sI3
I1
sI5
I1
sI6
I1
ssg165
(dp356
I0
I2
sI2
I1
sI3
I1
sI4
I1
sI5
I1
sI7
I1
sI9
I1
ssg167
(dp357
I0
I1
sI1
I1
sI2
I1
sI3
I1
sI4
I1
sI5
I1
sI6
I1
sI8
I1
sI9
I2
ssS'arthritis'
p358
(dp359
I3
I1
ssS'deformity'
p360
(dp361
I8
I1
ssg173
(dp362
I7
I1
ssS'knee'
p363
(dp364
I0
I1
sI9
I1
sI5
I1
sI7
I1
ssg177
(dp365
I4
I1
sI7
I2
ssS'oral herpes simplex'
p366
(dp367
I7
I1
ssS'lead'
p368
(dp369
I8
I1
ssg181
(dp370
I1
I1
sI6
I1
ssg185
(dp371
I8
I2
ssg187
(dp372
I0
I1
ssS'muscle'
p373
(dp374
I8
I1
sssS'26'
p375
(dp376
g201
(dp377
I3
I1
ssS'asia'
p378
(dp379
I3
I1
ssS'diabetes mellitus'
p380
(dp381
I5
I1
ssS'children'
p382
(dp383
I7
I2
ssS'auc'
p384
(dp385
I3
I1
ssg7
(dp386
I0
I1
ssS'acne'
p387
(dp388
I6
I1
ssg212
(dp389
I9
I1
ssS'appendicitis'
p390
(dp391
I0
I1
sI9
I1
sI7
I3
ssg216
(dp392
I8
I1
sI1
I1
sI3
I1
sI4
I1
sI7
I1
ssS'sis gene'
p393
(dp394
I9
I1
ssg13
(dp395
I1
I1
sI3
I1
sI4
I1
sI5
I3
sI6
I1
sI9
I1
ssg226
(dp396
I8
I1
sI2
I1
ssg3
(dp397
I8
I1
ssS'shoulder'
p398
(dp399
I4
I1
ssS'mody'
p400
(dp401
I2
I1
ssS'progesterone'
p402
(dp403
I8
I1
ssS'pregnancy multiple'
p404
(dp405
I2
I1
ssS'obesity'
p406
(dp407
I3
I1
sI6
I1
ssS'corpus luteum'
p408
(dp409
I6
I1
ssg31
(dp410
I1
I1
sI4
I1
sI7
I1
ssS'nut'
p411
(dp412
I4
I1
ssg37
(dp413
I1
I1
ssS'hair'
p414
(dp415
I6
I1
ssS'pregnancy'
p416
(dp417
I0
I1
sI1
I2
sI2
I2
sI3
I2
sI4
I1
sI5
I1
sI7
I1
sI8
I1
sI9
I2
ssS'ectopic pregnancy'
p418
(dp419
I0
I1
sI1
I2
sI2
I2
sI3
I2
sI4
I1
sI5
I1
sI7
I1
sI8
I1
sI9
I1
ssS'hemorrhage'
p420
(dp421
I1
I1
ssS'air'
p422
(dp423
I6
I1
ssS'pelvic pain'
p424
(dp425
I0
I1
ssS'bipolar disorder'
p426
(dp427
I4
I1
ssg51
(dp428
I5
I1
ssS'inflammation'
p429
(dp430
I0
I1
ssg61
(dp431
I8
I1
ssg63
(dp432
I7
I1
ssg65
(dp433
I3
I1
ssg67
(dp434
I1
I1
sI2
I1
sI3
I1
ssg71
(dp435
I1
I4
sI2
I2
sI3
I1
sI4
I1
sI6
I2
sI7
I2
sI8
I2
ssS'prenatal care'
p436
(dp437
I5
I1
ssS'fertility'
p438
(dp439
I8
I4
sI2
I2
sI3
I1
sI4
I1
sI6
I2
ssg79
(dp440
I1
I1
sI3
I1
sI4
I1
sI5
I3
sI6
I1
sI9
I1
ssS'insulin'
p441
(dp442
I5
I1
ssg83
(dp443
I0
I2
ssS'cyst'
p444
(dp445
I0
I1
sI7
I1
ssS'gene'
p446
(dp447
I9
I1
sI4
I1
ssS'men i'
p448
(dp449
I1
I1
ssS'nutritionist'
p450
(dp451
I4
I1
ssg101
(dp452
I7
I2
ssS'ovarian cyst'
p453
(dp454
I0
I1
sI7
I1
ssS'shoulder pain'
p455
(dp456
I4
I1
ssS'mining'
p457
(dp458
I9
I1
ssS'pelvic inflammatory disease'
p459
(dp460
I7
I1
ssg43
(dp461
I0
I1
sI2
I1
sI5
I2
sI7
I3
sI8
I1
sI9
I1
ssS'infection'
p462
(dp463
I9
I1
ssS'appendix'
p464
(dp465
I7
I1
ssg197
(dp466
I7
I2
ssg117
(dp467
I0
I1
sI1
I2
sI2
I2
sI3
I2
sI4
I3
sI5
I3
sI6
I1
sI7
I2
sI8
I1
ssS'rupture'
p468
(dp469
I0
I1
sI1
I1
sI2
I1
sI3
I1
sI5
I1
sI6
I1
sI7
I1
sI8
I1
ssS'women'
p470
(dp471
I8
I1
sI1
I1
sI2
I1
sI6
I2
sI7
I1
ssg121
(dp472
I7
I1
ssS't all'
p473
(dp474
I6
I1
ssS'det'
p475
(dp476
I9
I1
ssg183
(dp477
I5
I1
ssg131
(dp478
I2
I1
sI3
I1
ssg133
(dp479
I0
I1
sI1
I3
sI2
I1
sI7
I2
ssg139
(dp480
I0
I1
sI8
I1
sI3
I3
sI4
I1
sI5
I1
ssg325
(dp481
I3
I1
ssS'estrogen'
p482
(dp483
I8
I1
ssg145
(dp484
I1
I2
sI4
I2
sI5
I1
sI6
I2
sI7
I1
sI8
I1
sI9
I1
ssg147
(dp485
I4
I1
ssg340
(dp486
I1
I2
sI4
I1
sI9
I1
ssS'rib'
p487
(dp488
I2
I1
ssS'surgery'
p489
(dp490
I0
I1
ssS'pregnant women'
p491
(dp492
I7
I1
ssS'insulin dependent diabetes mellitus'
p493
(dp494
I5
I1
ssS'abscess'
p495
(dp496
I7
I1
ssS'hemodynamic'
p497
(dp498
I2
I1
ssg153
(dp499
I0
I2
sI1
I1
sI5
I2
sI8
I1
ssS'urinalysis'
p500
(dp501
I9
I1
ssg155
(dp502
I0
I1
sI8
I1
ssg159
(dp503
I0
I1
ssg167
(dp504
I0
I1
sI4
I1
ssS'hand'
p505
(dp506
I4
I1
ssS'ova'
p507
(dp508
I0
I1
sI7
I1
ssS'neck'
p509
(dp510
I4
I1
ssS'infertility'
p511
(dp512
I8
I3
sI2
I2
sI3
I1
sI4
I1
sI6
I2
ssg292
(dp513
I0
I3
ssg185
(dp514
I7
I1
ssg187
(dp515
I3
I1
ssS'time'
p516
(dp517
I6
I1
ssS'uterus'
p518
(dp519
I6
I1
ssS'endometriosis'
p520
(dp521
I0
I1
sssS'27'
p522
(dp523
g141
(dp524
I7
I1
ssg35
(dp525
I7
I1
ssS'hemoglobin'
p526
(dp527
I3
I1
sI5
I1
ssS'after treatment'
p528
(dp529
I8
I1
ssS'nail'
p530
(dp531
I6
I2
ssg147
(dp532
I0
I1
sI1
I1
ssg13
(dp533
I4
I1
ssg93
(dp534
I7
I1
ssS'skin'
p535
(dp536
I8
I1
sI1
I1
sI6
I1
sI7
I1
ssS'eating'
p537
(dp538
I3
I1
ssg43
(dp539
I5
I1
ssg382
(dp540
I8
I1
sI2
I1
ssS'headaches'
p541
(dp542
I1
I1
ssS'globin'
p543
(dp544
I0
I1
sI3
I1
sI5
I1
ssS'aven'
p545
(dp546
I4
I1
ssg163
(dp547
I5
I1
ssg250
(dp548
I4
I1
ssg101
(dp549
I0
I2
sI8
I1
sI2
I1
sI6
I1
ssg368
(dp550
I8
I1
ssS'iron deficiency anemia'
p551
(dp552
I8
I1
sI9
I2
sI2
I1
sI7
I1
ssS'foods'
p553
(dp554
I2
I1
ssg153
(dp555
I7
I1
ssS'cell'
p556
(dp557
I9
I1
ssg155
(dp558
I8
I3
sI1
I2
sI3
I3
sI5
I1
ssg133
(dp559
I8
I1
sI9
I1
sI6
I1
sI7
I1
ssg53
(dp560
I8
I1
ssg216
(dp561
I8
I1
sI1
I1
ssg159
(dp562
I7
I1
ssS'blood cells'
p563
(dp564
I9
I1
ssS'hemoglobin a'
p565
(dp566
I5
I1
ssS'nails'
p567
(dp568
I6
I2
ssS'headache'
p569
(dp570
I1
I1
ssS'head'
p571
(dp572
I1
I1
ssg171
(dp573
I4
I1
ssg67
(dp574
I0
I1
sI4
I1
ssS'rnai'
p575
(dp576
I6
I2
ssS'food'
p577
(dp578
I2
I1
ssS'red blood cells'
p579
(dp580
I9
I1
ssg17
(dp581
I6
I2
ssg71
(dp582
I8
I1
sI1
I1
sI9
I1
ssS'ferritin'
p583
(dp584
I8
I3
sI1
I2
sI3
I2
sI5
I1
ssS'blood cell'
p585
(dp586
I9
I1
ssS'red blood cell'
p587
(dp588
I9
I1
ssS'fatigue'
p589
(dp590
I1
I1
sI3
I1
ssS'blood'
p591
(dp592
I8
I1
sI9
I1
sI2
I1
sI7
I1
ssg197
(dp593
I0
I2
sI8
I1
sI2
I1
ssg117
(dp594
I1
I1
sI3
I1
sI4
I2
sI5
I1
sI7
I2
sI9
I1
ssS'craving'
p595
(dp596
I4
I1
ssS'd cell'
p597
(dp598
I9
I1
ssS'anemia'
p599
(dp600
I1
I1
sI2
I1
sI6
I1
sI7
I2
sI8
I1
sI9
I4
ssS'finger'
p601
(dp602
I6
I2
ssS'cravings'
p603
(dp604
I4
I1
ssS'haem'
p605
(dp606
I0
I1
ssS'name'
p607
(dp608
I3
I1
ssg79
(dp609
I4
I1
ssS'university'
p610
(dp611
I8
I1
ssg313
(dp612
I4
I1
ssg39
(dp613
I3
I1
sI4
I1
ssg183
(dp614
I5
I1
ssg470
(dp615
I9
I1
ssS'anae'
p616
(dp617
I0
I3
sI9
I1
ssg274
(dp618
I4
I1
ssS'iron'
p619
(dp620
I0
I1
sI1
I3
sI2
I3
sI3
I3
sI4
I2
sI5
I3
sI6
I1
sI7
I2
sI8
I1
sI9
I5
ssg516
(dp621
I5
I1
ssg268
(dp622
I5
I1
ssS'dizziness'
p623
(dp624
I8
I1
sI1
I1
sI4
I1
ssg373
(dp625
I4
I1
ssS'd cells'
p626
(dp627
I9
I1
ssS'cells'
p628
(dp629
I9
I1
ssg31
(dp630
I9
I1
sI3
I1
sI4
I1
sI5
I1
sI7
I1
sssS'20'
p631
(dp632
S'walking'
p633
(dp634
I2
I1
ssS'brain'
p635
(dp636
I8
I1
ssS'sleep'
p637
(dp638
I3
I1
ssg51
(dp639
I8
I1
sI9
I1
ssg23
(dp640
I3
I1
ssS'japan'
p641
(dp642
I7
I1
ssS'retention'
p643
(dp644
I8
I1
ssS'hiv i'
p645
(dp646
I0
I1
ssS'jaw'
p647
(dp648
I3
I1
ssS'father'
p649
(dp650
I3
I1
ssg155
(dp651
I8
I1
ssg212
(dp652
I4
I1
sI5
I1
sI6
I1
sI7
I1
ssS'adl'
p653
(dp654
I5
I1
ssS'personality'
p655
(dp656
I8
I1
sI1
I1
sI2
I1
sI4
I1
sI7
I1
ssg13
(dp657
I0
I1
ssg226
(dp658
I1
I1
sI9
I1
ssg346
(dp659
I0
I1
ssg17
(dp660
I0
I1
sI7
I1
ssg21
(dp661
I1
I1
ssS'aphasia'
p662
(dp663
I5
I1
ssS'amp'
p664
(dp665
I2
I1
ssS'd alanine aminotransferase'
p666
(dp667
I9
I1
ssg597
(dp668
I9
I1
ssg27
(dp669
I9
I1
ssg610
(dp670
I8
I1
ssS'stroke'
p671
(dp672
I8
I1
ssg43
(dp673
I2
I1
sI3
I1
sI6
I1
ssS'nose'
p674
(dp675
I3
I1
ssS'weight gain'
p676
(dp677
I9
I1
ssg31
(dp678
I3
I1
sI6
I1
sI7
I1
ssg33
(dp679
I7
I1
ssg35
(dp680
I0
I1
sI8
I1
ssS'tea'
p681
(dp682
I2
I1
ssS'elderly'
p683
(dp684
I6
I1
ssg414
(dp685
I9
I1
ssS'laboratory'
p686
(dp687
I9
I1
ssg183
(dp688
I3
I1
ssg203
(dp689
I1
I1
sI9
I1
ssg378
(dp690
I5
I1
sI6
I1
ssg556
(dp691
I9
I1
ssS'motor neuron disease'
p692
(dp693
I7
I1
ssg63
(dp694
I6
I1
ssS'movement'
p695
(dp696
I2
I1
ssS'confusion'
p697
(dp698
I0
I1
sI3
I1
ssg71
(dp699
I0
I1
sI2
I2
sI3
I1
sI4
I1
sI5
I3
sI6
I2
sI7
I3
sI8
I1
ssg585
(dp700
I9
I1
ssS'tremor'
p701
(dp702
I4
I2
ssg127
(dp703
I4
I1
ssS'myoclonic jerks'
p704
(dp705
I0
I1
sI1
I1
sI3
I1
sI5
I1
sI6
I1
sI7
I1
sI9
I1
ssg79
(dp706
I0
I1
ssg272
(dp707
I0
I1
ssS'motion'
p708
(dp709
I5
I1
ssS'transfer'
p710
(dp711
I9
I1
ssS'delirium'
p712
(dp713
I5
I1
ssg446
(dp714
I9
I1
sI4
I1
ssg591
(dp715
I9
I1
ssS'emotion'
p716
(dp717
I5
I1
ssS'family'
p718
(dp719
I8
I1
ssS'character'
p720
(dp721
I6
I1
sI7
I1
ssS'seizure'
p722
(dp723
I0
I1
ssS'parkinsons disease'
p724
(dp725
I3
I1
ssS'alanine'
p726
(dp727
I9
I1
ssS'cognitive impairment'
p728
(dp729
I6
I1
ssS'ataxia'
p730
(dp731
I2
I1
sI4
I2
ssg285
(dp732
I0
I1
ssg99
(dp733
I1
I1
ssS'seizures'
p734
(dp735
I0
I1
ssS'arts'
p736
(dp737
I8
I1
ssS'transferase'
p738
(dp739
I9
I1
ssg101
(dp740
I5
I2
ssg103
(dp741
I3
I1
ssS'alanine aminotransferase'
p742
(dp743
I9
I1
ssg279
(dp744
I1
I1
sI9
I1
ssS'hiv infection'
p745
(dp746
I0
I1
ssS'myoclonus'
p747
(dp748
I2
I1
sI4
I1
sI7
I1
ssS'memory'
p749
(dp750
I0
I1
sI1
I1
sI2
I1
sI4
I1
sI5
I1
sI7
I1
sI8
I1
sI9
I1
ssS'blood cell count'
p751
(dp752
I9
I1
ssS'reflex'
p753
(dp754
I1
I1
ssS'minor'
p755
(dp756
I4
I1
ssS'motor neuron'
p757
(dp758
I7
I1
ssg462
(dp759
I0
I1
ssS'blindness'
p760
(dp761
I6
I1
ssg117
(dp762
I0
I4
sI1
I2
sI2
I1
sI3
I2
sI4
I2
sI5
I2
sI6
I2
sI7
I2
sI9
I1
ssS'cerebellar ataxia'
p763
(dp764
I4
I1
ssS'senile dementia'
p765
(dp766
I7
I1
ssg39
(dp767
I6
I1
sI7
I1
ssg422
(dp768
I9
I1
sI4
I1
sI5
I1
sI6
I1
sI7
I1
ssg133
(dp769
I8
I3
sI9
I1
ssg516
(dp770
I6
I1
ssS'voice'
p771
(dp772
I9
I1
ssS'white blood cell'
p773
(dp774
I9
I1
ssg139
(dp775
I4
I1
sI5
I1
ssg325
(dp776
I7
I2
ssS'moth'
p777
(dp778
I3
I1
ssS'neuron'
p779
(dp780
I7
I1
ssS'tax'
p781
(dp782
I2
I1
sI4
I2
ssg145
(dp783
I2
I1
sI3
I1
ssg147
(dp784
I9
I2
sI2
I1
sI7
I1
sI1
I1
ssS'cell count'
p785
(dp786
I9
I1
ssS'ests'
p787
(dp788
I9
I1
sI4
I1
ssg340
(dp789
I3
I1
ssS'dementia'
p790
(dp791
I0
I1
sI2
I1
sI3
I1
sI5
I2
sI7
I2
sI8
I1
ssg153
(dp792
I2
I2
sI3
I1
sI6
I1
ssS'movements'
p793
(dp794
I2
I1
ssg9
(dp795
I1
I1
ssS'book'
p796
(dp797
I5
I1
ssS'cortical blindness'
p798
(dp799
I6
I1
ssg159
(dp800
I3
I1
ssS'spinocerebellar ataxia'
p801
(dp802
I4
I1
ssS'tachypnea'
p803
(dp804
I1
I1
ssg163
(dp805
I0
I1
sI8
I1
sI4
I1
sI6
I2
sI7
I1
ssg354
(dp806
I0
I1
sI8
I1
sI6
I1
sI9
I1
ssg167
(dp807
I1
I1
ssS'white blood cell count'
p808
(dp809
I9
I1
ssg171
(dp810
I2
I1
sI3
I1
ssS'rain'
p811
(dp812
I8
I1
ssS'dyspraxia'
p813
(dp814
I6
I1
ssS'creutzfeldt jakob disease'
p815
(dp816
I6
I1
ssS'chara'
p817
(dp818
I6
I1
sI7
I1
ssS'light'
p819
(dp820
I8
I1
ssg185
(dp821
I3
I1
sI6
I1
sI7
I1
ssS'person'
p822
(dp823
I8
I1
sI1
I1
sI2
I1
sI4
I1
sI7
I1
ssg187
(dp824
I0
I1
ssS'mother'
p825
(dp826
I3
I1
ssS'psychiatry'
p827
(dp828
I5
I1
ssS'myoclonic jerk'
p829
(dp830
I0
I1
sI1
I1
sI3
I1
sI5
I1
sI6
I1
sI7
I1
sI9
I1
sssS'21'
p831
(dp832
S'sclerosing cholangitis'
p833
(dp834
I5
I1
ssS'self assessment'
p835
(dp836
I7
I1
ssS'dehydration'
p837
(dp838
I8
I1
ssS'actinomyces'
p839
(dp840
I7
I1
ssg535
(dp841
I8
I1
ssS'absorption'
p842
(dp843
I0
I1
sI1
I1
ssg9
(dp844
I3
I1
ssg208
(dp845
I8
I1
ssS'environment'
p846
(dp847
I5
I1
ssS'actin'
p848
(dp849
I7
I1
ssg216
(dp850
I4
I1
sI6
I1
ssS'male homosexuality'
p851
(dp852
I4
I1
ssS'diseases'
p853
(dp854
I0
I1
ssg17
(dp855
I7
I1
ssS'flatulence'
p856
(dp857
I2
I1
ssS'hib'
p858
(dp859
I4
I1
ssg21
(dp860
I3
I1
ssg664
(dp861
I6
I1
ssS'cryptosporidium'
p862
(dp863
I5
I1
ssg25
(dp864
I1
I1
ssS'reading'
p865
(dp866
I8
I1
ssS'skin rash'
p867
(dp868
I8
I1
ssg803
(dp869
I3
I1
ssS'parasite'
p870
(dp871
I8
I1
sI1
I1
sI5
I1
sI6
I1
ssg616
(dp872
I9
I1
ssg674
(dp873
I7
I1
ssg27
(dp874
I9
I1
sI5
I1
ssg31
(dp875
I0
I1
sI4
I1
ssg33
(dp876
I4
I1
sI6
I1
ssg35
(dp877
I9
I1
sI7
I1
ssg239
(dp878
I0
I1
ssS'entamoeba'
p879
(dp880
I2
I1
ssS'sex'
p881
(dp882
I4
I1
ssS'culture'
p883
(dp884
I9
I1
ssg43
(dp885
I7
I1
ssg248
(dp886
I9
I1
ssS'canada'
p887
(dp888
I1
I1
ssS'giardia'
p889
(dp890
I6
I1
ssg47
(dp891
I1
I1
ssS'review'
p892
(dp893
I9
I1
sI7
I1
ssS'microbiology'
p894
(dp895
I9
I1
sI7
I2
ssg51
(dp896
I2
I1
ssS'parasitology'
p897
(dp898
I2
I1
ssg133
(dp899
I2
I1
sI4
I1
sI7
I1
ssS'internet'
p900
(dp901
I8
I1
sI9
I1
ssg57
(dp902
I7
I1
ssg61
(dp903
I3
I1
sI7
I1
ssg65
(dp904
I4
I1
sI6
I1
ssS'biology'
p905
(dp906
I9
I1
sI7
I2
ssg67
(dp907
I9
I1
sI5
I1
ssS'power'
p908
(dp909
I2
I1
ssg71
(dp910
I4
I1
sI5
I1
sI6
I1
sI7
I2
ssS'water'
p911
(dp912
I1
I1
sI4
I1
ssg73
(dp913
I3
I1
sI7
I1
ssS'parasites'
p914
(dp915
I8
I1
sI5
I1
sI6
I1
ssS'amoeba'
p916
(dp917
I2
I1
ssg444
(dp918
I4
I1
ssg85
(dp919
I7
I1
ssS'erysipeloid'
p920
(dp921
I8
I1
ssS'classification'
p922
(dp923
I0
I1
ssS'homosexuality'
p924
(dp925
I4
I1
ssS'ether'
p926
(dp927
I8
I1
ssg99
(dp928
I3
I1
ssS'internal medicine'
p929
(dp930
I7
I1
ssg101
(dp931
I7
I1
ssg103
(dp932
I1
I1
ssS'intestinal disease'
p933
(dp934
I6
I1
ssS'hydra'
p935
(dp936
I8
I1
ssS'dogs'
p937
(dp938
I6
I2
ssS'alcoholic'
p939
(dp940
I7
I1
ssS'copi'
p941
(dp942
I7
I1
ssg462
(dp943
I9
I2
sI2
I1
sI5
I1
sI7
I1
ssg117
(dp944
I0
I1
sI2
I2
sI3
I3
sI4
I1
sI5
I1
sI6
I1
sI7
I1
sI8
I1
sI9
I1
ssS'cholangitis'
p945
(dp946
I5
I1
ssg39
(dp947
I0
I2
sI4
I3
sI6
I2
ssg183
(dp948
I0
I1
ssS'will'
p949
(dp950
I6
I1
ssg131
(dp951
I9
I1
sI5
I1
ssS'sexuality'
p952
(dp953
I4
I1
ssg619
(dp954
I5
I1
ssg139
(dp955
I0
I1
sI1
I1
ssg325
(dp956
I9
I1
sI7
I1
ssS'mexico'
p957
(dp958
I2
I1
ssS'mucus'
p959
(dp960
I6
I1
ssS'dog'
p961
(dp962
I6
I2
ssg147
(dp963
I8
I1
sI2
I1
sI3
I1
ssS'tissue'
p964
(dp965
I7
I1
ssS'kenya'
p966
(dp967
I1
I1
ssS'pathology'
p968
(dp969
I7
I1
ssg153
(dp970
I8
I2
sI5
I1
sI7
I1
ssS'syndrome'
p971
(dp972
I1
I1
ssS'nad'
p973
(dp974
I1
I1
ssS'diarrhea'
p975
(dp976
I0
I1
sI1
I1
sI3
I1
sI4
I1
sI5
I1
sI6
I1
sI9
I1
ssS'mole'
p977
(dp978
I7
I1
ssg155
(dp979
I0
I1
sI4
I2
sI6
I2
sI7
I1
ssS'rome'
p980
(dp981
I1
I1
ssS'smell'
p982
(dp983
I0
I1
sI1
I1
sI2
I1
sI3
I1
sI4
I1
sI6
I1
sI7
I1
sI8
I1
sI9
I1
ssg163
(dp984
I2
I2
ssS'nits'
p985
(dp986
I2
I1
ssg354
(dp987
I4
I1
sI5
I1
ssg165
(dp988
I0
I1
sI1
I1
sI3
I1
sI7
I1
ssg167
(dp989
I0
I1
sI3
I2
ssg171
(dp990
I2
I1
ssS'dc'
p991
(dp992
I8
I1
ssg173
(dp993
I1
I1
sI7
I1
ssS'student'
p994
(dp995
I1
I1
ssS'entamoeba histolytica'
p996
(dp997
I2
I1
ssg250
(dp998
I4
I1
ssg292
(dp999
I0
I1
sI8
I1
ssS'infections'
p1000
(dp1001
I9
I1
sI7
I1
ssg185
(dp1002
I0
I1
sI6
I1
ssS'feces'
p1003
(dp1004
I2
I1
sI5
I1
sI6
I1
sI7
I1
ssg187
(dp1005
I9
I1
ssS'malabsorption syndrome'
p1006
(dp1007
I1
I1
ssS'wing'
p1008
(dp1009
I4
I1
sssS'22'
p1010
(dp1011
S'pleural effusion'
p1012
(dp1013
I1
I1
ssg113
(dp1014
I9
I1
ssS'pleura'
p1015
(dp1016
I1
I2
ssS'lice'
p1017
(dp1018
I6
I1
ssS'joint pain'
p1019
(dp1020
I6
I1
ssg883
(dp1021
I0
I1
sI8
I1
sI2
I3
sI3
I1
sI6
I1
ssg147
(dp1022
I0
I1
sI2
I1
sI3
I1
sI5
I1
sI6
I1
ssg93
(dp1023
I0
I1
sI8
I1
sI3
I1
sI6
I1
sI9
I1
ssg787
(dp1024
I4
I1
sI7
I1
ssg167
(dp1025
I0
I2
sI1
I1
sI4
I1
sI6
I1
ssg968
(dp1026
I1
I1
sI7
I1
ssg29
(dp1027
I7
I1
ssg487
(dp1028
I7
I1
ssg153
(dp1029
I8
I1
sI9
I2
sI4
I1
sI5
I1
sI1
I1
ssS'extended care facility'
p1030
(dp1031
I5
I1
ssg99
(dp1032
I0
I1
sI1
I1
ssS'lung diseases'
p1033
(dp1034
I9
I1
ssS'hematocrit'
p1035
(dp1036
I7
I1
ssg117
(dp1037
I0
I1
sI1
I2
sI2
I1
sI3
I1
sI4
I1
sI5
I1
sI6
I1
sI7
I2
sI8
I1
sI9
I1
ssg346
(dp1038
I2
I1
ssS'blood sugar'
p1039
(dp1040
I6
I1
ssg35
(dp1041
I7
I1
ssg101
(dp1042
I9
I1
sI7
I1
ssg103
(dp1043
I4
I2
ssg155
(dp1044
I1
I1
sI4
I1
sI7
I1
ssg51
(dp1045
I6
I1
ssS'guideline'
p1046
(dp1047
I9
I1
ssg9
(dp1048
I0
I2
sI1
I1
sI3
I1
sI4
I1
sI5
I1
sI7
I1
sI9
I1
ssg67
(dp1049
I1
I1
sI2
I1
sI3
I1
sI6
I1
sI9
I1
ssg216
(dp1050
I8
I1
sI9
I1
ssg900
(dp1051
I4
I1
sI5
I1
ssg57
(dp1052
I4
I1
ssg61
(dp1053
I0
I1
sI1
I1
sI2
I1
sI3
I1
sI4
I1
sI6
I1
sI7
I1
sI8
I1
ssg803
(dp1054
I0
I1
ssg65
(dp1055
I0
I1
ssg111
(dp1056
I3
I1
ssg354
(dp1057
I7
I1
ssg165
(dp1058
I0
I1
sI3
I1
sI6
I2
ssS'pediatrics'
p1059
(dp1060
I5
I1
ssg159
(dp1061
I8
I1
sI1
I1
sI5
I1
ssg15
(dp1062
I1
I1
ssg71
(dp1063
I8
I2
sI9
I3
sI2
I1
sI5
I1
sI7
I1
ssS'fungus'
p1064
(dp1065
I8
I1
ssS'joint'
p1066
(dp1067
I6
I1
ssg21
(dp1068
I0
I1
ssg853
(dp1069
I9
I1
ssg591
(dp1070
I1
I1
sI2
I3
sI4
I1
sI5
I1
sI6
I1
sI7
I1
sI8
I1
ssS'tuberculosis'
p1071
(dp1072
I9
I1
ssg197
(dp1073
I9
I1
ssS'x rays'
p1074
(dp1075
I5
I1
ssg73
(dp1076
I0
I1
sI1
I1
sI2
I2
sI3
I2
sI4
I1
sI6
I1
sI7
I1
sI8
I1
sI9
I1
ssS'leprosy'
p1077
(dp1078
I9
I1
ssS'smoking'
p1079
(dp1080
I7
I1
ssS'nausea'
p1081
(dp1082
I4
I1
ssg121
(dp1083
I3
I1
ssg123
(dp1084
I0
I1
sI1
I1
sI2
I1
sI3
I2
sI4
I1
sI5
I1
sI7
I1
sI9
I1
ssS'cytology'
p1085
(dp1086
I2
I1
ssS'blood test'
p1087
(dp1088
I4
I1
sI7
I1
ssg77
(dp1089
I0
I1
sI1
I1
sI2
I3
sI3
I1
sI4
I1
sI6
I1
sI9
I1
ssg181
(dp1090
I1
I1
sI2
I2
sI4
I1
ssS'blood tests'
p1091
(dp1092
I4
I1
sI7
I1
ssS'ribs'
p1093
(dp1094
I7
I1
ssg292
(dp1095
I9
I1
sI4
I1
ssS'attention'
p1096
(dp1097
I1
I1
ssg185
(dp1098
I9
I1
sI6
I1
ssS'microscopy'
p1099
(dp1100
I9
I1
ssg43
(dp1101
I1
I1
sI4
I1
ssg949
(dp1102
I6
I1
ssg129
(dp1103
I3
I1
ssg131
(dp1104
I9
I1
ssg133
(dp1105
I0
I3
sI8
I3
sI3
I2
sI6
I1
sI9
I2
ssg302
(dp1106
I1
I1
ssg187
(dp1107
I0
I1
sI3
I1
sI6
I1
ssS'mali'
p1108
(dp1109
I9
I1
ssS'chin'
p1110
(dp1111
I7
I1
ssg1008
(dp1112
I5
I1
ssS'vision'
p1113
(dp1114
I9
I1
ssg31
(dp1115
I9
I1
sI3
I1
sI6
I1
sssS'23'
p1116
(dp1117
g193
(dp1118
I7
I1
ssg199
(dp1119
I0
I1
sI9
I1
ssg201
(dp1120
I2
I1
ssS'hock'
p1121
(dp1122
I5
I1
sI7
I1
ssg9
(dp1123
I8
I1
sI3
I1
ssS'forms'
p1124
(dp1125
I3
I1
ssg738
(dp1126
I4
I1
ssg216
(dp1127
I7
I1
ssg599
(dp1128
I6
I1
ssS'plasma'
p1129
(dp1130
I5
I1
ssg13
(dp1131
I2
I1
sI7
I1
ssg853
(dp1132
I8
I1
sI7
I1
ssg15
(dp1133
I6
I1
ssg309
(dp1134
I8
I1
ssS'overall'
p1135
(dp1136
I4
I1
ssS'emergencies'
p1137
(dp1138
I6
I1
ssg1066
(dp1139
I0
I1
sI1
I1
ssg21
(dp1140
I8
I1
ssS'infectious diseases'
p1141
(dp1142
I7
I1
ssS'primary care physician'
p1143
(dp1144
I8
I1
ssg597
(dp1145
I4
I1
ssg1081
(dp1146
I3
I1
ssg605
(dp1147
I5
I3
ssg27
(dp1148
I2
I1
sI3
I1
sI4
I1
sI5
I1
sI6
I2
sI9
I1
ssg610
(dp1149
I9
I1
ssS'shock'
p1150
(dp1151
I5
I1
sI7
I1
ssg43
(dp1152
I9
I1
sI2
I1
sI6
I2
ssS'dengue'
p1153
(dp1154
I5
I3
ssg674
(dp1155
I0
I1
ssS'cardiovascular system'
p1156
(dp1157
I8
I1
ssS'neck pain'
p1158
(dp1159
I2
I1
sI6
I1
ssg726
(dp1160
I4
I1
ssg315
(dp1161
I7
I1
ssg883
(dp1162
I0
I1
ssg244
(dp1163
I4
I1
ssg686
(dp1164
I4
I1
sI6
I2
ssS'high blood pressure'
p1165
(dp1166
I8
I1
ssS'septic shock'
p1167
(dp1168
I7
I1
ssS'thrombocytopenia'
p1169
(dp1170
I0
I1
sI6
I1
ssg250
(dp1171
I0
I1
ssg47
(dp1172
I0
I1
sI7
I1
ssS'pet'
p1173
(dp1174
I5
I1
ssg378
(dp1175
I1
I1
ssS'ache neck'
p1176
(dp1177
I6
I1
ssg556
(dp1178
I4
I1
ssg57
(dp1179
I6
I1
ssg666
(dp1180
I4
I1
ssS'infectious disease'
p1181
(dp1182
I7
I1
ssg65
(dp1183
I8
I1
sI1
I1
ssg71
(dp1184
I4
I1
sI7
I1
ssg263
(dp1185
I9
I1
ssg69
(dp1186
I2
I1
ssS'burn'
p1187
(dp1188
I3
I1
ssg585
(dp1189
I4
I1
ssg266
(dp1190
I3
I1
ssS'pressure'
p1191
(dp1192
I8
I1
ssS'pseudomonas'
p1193
(dp1194
I9
I1
ssg73
(dp1195
I3
I1
ssS'respiratory sound'
p1196
(dp1197
I4
I1
ssg1087
(dp1198
I3
I1
ssg79
(dp1199
I2
I1
sI7
I1
ssg81
(dp1200
I2
I1
ssg173
(dp1201
I4
I1
ssg710
(dp1202
I4
I1
ssS'dengue fever'
p1203
(dp1204
I5
I1
ssg446
(dp1205
I4
I1
ssS'intensive care'
p1206
(dp1207
I7
I1
ssg175
(dp1208
I2
I1
ssg718
(dp1209
I7
I1
ssS'united states'
p1210
(dp1211
I0
I1
ssg91
(dp1212
I3
I1
sI4
I2
ssg33
(dp1213
I8
I1
ssg97
(dp1214
I4
I1
ssS'eye'
p1215
(dp1216
I6
I1
ssS'emergency medicine'
p1217
(dp1218
I6
I1
ssg101
(dp1219
I4
I1
sI5
I1
sI6
I1
ssg103
(dp1220
I7
I1
ssg742
(dp1221
I4
I1
ssS'fever dengue'
p1222
(dp1223
I5
I2
ssg294
(dp1224
I9
I1
ssS'pain joint'
p1225
(dp1226
I0
I1
ssg569
(dp1227
I0
I1
sI1
I1
sI2
I1
sI3
I1
sI6
I1
sI9
I1
ssg571
(dp1228
I0
I1
sI1
I1
sI2
I1
sI3
I1
sI6
I1
sI9
I1
ssS'primary care'
p1229
(dp1230
I8
I1
ssg462
(dp1231
I3
I1
sI6
I1
ssg304
(dp1232
I6
I1
ssg115
(dp1233
I2
I1
ssg117
(dp1234
I1
I1
sI2
I1
sI3
I1
sI4
I1
sI6
I1
sI7
I3
sI8
I2
sI9
I1
ssS'men 1'
p1235
(dp1236
I4
I1
ssg121
(dp1237
I4
I1
ssS'leukopenia'
p1238
(dp1239
I0
I1
sI6
I1
ssS'cerebrospinal fluid'
p1240
(dp1241
I2
I1
ssg313
(dp1242
I9
I1
ssg39
(dp1243
I2
I1
sI6
I1
ssg183
(dp1244
I6
I1
ssg949
(dp1245
I0
I1
sI6
I1
ssg133
(dp1246
I0
I1
sI9
I2
sI2
I1
sI4
I1
sI7
I1
ssS'tourniquet'
p1247
(dp1248
I5
I1
ssS'chronic obstructive pulmonary disease'
p1249
(dp1250
I7
I1
ssg135
(dp1251
I2
I1
ssg19
(dp1252
I7
I1
ssg773
(dp1253
I4
I1
ssg139
(dp1254
I8
I1
sI9
I1
sI3
I1
ssS'typhoid fever'
p1255
(dp1256
I0
I1
ssg787
(dp1257
I4
I1
sI6
I1
ssS'pulmonary disease'
p1258
(dp1259
I7
I1
ssS'eyes'
p1260
(dp1261
I6
I1
ssg1019
(dp1262
I0
I1
sI1
I1
ssg147
(dp1263
I3
I1
sI4
I4
sI5
I1
sI6
I2
ssS'obstructive pulmonary disease'
p1264
(dp1265
I7
I1
ssg41
(dp1266
I2
I1
ssg338
(dp1267
I7
I1
ssS'muscle pain'
p1268
(dp1269
I0
I1
ssg153
(dp1270
I0
I1
sI8
I1
sI2
I2
sI9
I1
ssS'breakbone fever'
p1271
(dp1272
I5
I1
ssg971
(dp1273
I5
I1
ssS'blood pressure'
p1274
(dp1275
I8
I1
ssS'travel'
p1276
(dp1277
I0
I1
ssg155
(dp1278
I8
I1
sI3
I1
sI6
I1
ssg159
(dp1279
I8
I1
ssS'etec'
p1280
(dp1281
I5
I1
ssg163
(dp1282
I7
I1
ssg354
(dp1283
I4
I1
ssg165
(dp1284
I0
I6
sI1
I1
sI2
I1
sI3
I1
sI4
I1
sI5
I3
sI7
I1
ssg167
(dp1285
I0
I2
sI1
I1
sI2
I1
sI3
I1
sI6
I1
sI7
I1
sI8
I1
ssS'respiratory sounds'
p1286
(dp1287
I4
I1
ssS'typhoid'
p1288
(dp1289
I0
I1
ssg171
(dp1290
I6
I1
ssS'abdomen'
p1291
(dp1292
I4
I1
ssg507
(dp1293
I8
I1
ssg591
(dp1294
I0
I1
sI1
I1
sI2
I1
sI3
I1
sI4
I1
sI8
I1
sI9
I1
ssS'intensive care unit'
p1295
(dp1296
I7
I1
ssS'america'
p1297
(dp1298
I9
I1
ssg177
(dp1299
I8
I1
sI4
I1
ssg179
(dp1300
I4
I1
ssg85
(dp1301
I6
I1
ssg509
(dp1302
I2
I1
sI6
I1
ssg292
(dp1303
I9
I1
sI4
I1
ssS'enzymes'
p1304
(dp1305
I6
I1
ssg819
(dp1306
I6
I1
ssg185
(dp1307
I8
I1
sI7
I2
ssg980
(dp1308
I5
I1
ssg187
(dp1309
I1
I1
ssg516
(dp1310
I7
I1
ssg518
(dp1311
I4
I1
ssg373
(dp1312
I0
I1
ssS'stem'
p1313
(dp1314
I8
I1
sI6
I1
sssS'28'
p1315
(dp1316
S'infant'
p1317
(dp1318
I8
I1
sI3
I1
ssg197
(dp1319
I8
I1
sI2
I1
sI5
I2
ssg201
(dp1320
I0
I1
ssg535
(dp1321
I9
I1
sI7
I1
ssS'extremities'
p1322
(dp1323
I9
I1
ssg382
(dp1324
I5
I1
ssg7
(dp1325
I6
I1
ssS'lower extremity'
p1326
(dp1327
I0
I1
sI5
I1
ssg208
(dp1328
I9
I1
sI3
I1
ssg214
(dp1329
I0
I1
sI1
I1
sI3
I1
sI6
I1
sI7
I1
sI8
I1
sI9
I1
ssg216
(dp1330
I8
I1
ssg255
(dp1331
I0
I1
sI1
I1
sI2
I1
ssS'lymph node'
p1332
(dp1333
I4
I1
ssg13
(dp1334
I0
I1
ssg226
(dp1335
I5
I1
ssg15
(dp1336
I1
I3
sI3
I1
sI4
I1
sI5
I1
sI7
I1
ssS'bear'
p1337
(dp1338
I2
I1
ssg1066
(dp1339
I1
I1
ssg21
(dp1340
I4
I1
ssS'tick bite'
p1341
(dp1342
I0
I1
sI5
I1
ssS'birth'
p1343
(dp1344
I9
I1
ssS'knee joint'
p1345
(dp1346
I1
I1
ssg23
(dp1347
I3
I1
ssS'tick'
p1348
(dp1349
I0
I1
sI3
I1
sI5
I1
ssg43
(dp1350
I1
I2
sI4
I1
sI6
I1
sI9
I1
ssg35
(dp1351
I1
I1
sI2
I1
sI3
I1
sI5
I4
sI7
I1
ssg244
(dp1352
I6
I1
sI7
I1
ssg67
(dp1353
I9
I1
sI6
I1
ssS'spect'
p1354
(dp1355
I8
I1
ssg203
(dp1356
I7
I1
ssg47
(dp1357
I4
I1
sI6
I1
ssS'ticks'
p1358
(dp1359
I3
I1
ssg51
(dp1360
I8
I1
sI9
I1
sI3
I1
sI4
I1
sI6
I1
ssS'research'
p1361
(dp1362
I6
I1
ssg53
(dp1363
I8
I1
sI2
I1
ssS'scalp'
p1364
(dp1365
I9
I1
ssg57
(dp1366
I9
I1
sI6
I1
ssg59
(dp1367
I8
I1
ssg61
(dp1368
I0
I1
sI4
I1
ssg65
(dp1369
I0
I1
ssg695
(dp1370
I7
I1
ssg1059
(dp1371
I2
I1
sI3
I1
ssg261
(dp1372
I0
I1
sI1
I1
sI3
I1
sI6
I1
sI7
I1
sI8
I1
sI9
I1
ssg263
(dp1373
I8
I1
sI7
I1
ssg71
(dp1374
I8
I1
sI1
I1
sI3
I1
sI5
I2
sI7
I2
ssS'jasmine'
p1375
(dp1376
I8
I1
ssS'centesis'
p1377
(dp1378
I5
I2
ssg73
(dp1379
I0
I1
sI4
I1
ssg79
(dp1380
I0
I1
ssg446
(dp1381
I7
I1
ssg9
(dp1382
I4
I1
ssg718
(dp1383
I8
I1
ssS'color'
p1384
(dp1385
I7
I1
ssg95
(dp1386
I1
I1
sI5
I1
sI7
I1
ssS'limb'
p1387
(dp1388
I2
I2
ssg99
(dp1389
I7
I1
ssS'lymph nodes'
p1390
(dp1391
I4
I1
ssS'hip'
p1392
(dp1393
I2
I1
sI5
I4
ssg101
(dp1394
I8
I1
sI2
I1
sI5
I2
ssg103
(dp1395
I6
I1
ssS'chest pains'
p1396
(dp1397
I4
I1
ssS'maintenance'
p1398
(dp1399
I8
I1
ssg302
(dp1400
I1
I2
sI4
I1
ssg571
(dp1401
I3
I1
ssS'nickel'
p1402
(dp1403
I9
I1
ssg115
(dp1404
I4
I1
ssg117
(dp1405
I0
I2
sI1
I1
sI2
I1
sI3
I1
sI4
I2
sI6
I3
sI7
I2
sI9
I1
ssg119
(dp1406
I4
I1
ssg121
(dp1407
I5
I2
ssS'extremity'
p1408
(dp1409
I0
I1
sI3
I1
sI5
I1
ssS'science'
p1410
(dp1411
I6
I1
ssg39
(dp1412
I8
I1
sI4
I1
ssS'bed'
p1413
(dp1414
I5
I1
ssS'pediatric nurse practitioner'
p1415
(dp1416
I8
I1
ssg133
(dp1417
I1
I2
sI5
I2
ssS'lower extremities'
p1418
(dp1419
I9
I1
ssg139
(dp1420
I0
I1
sI1
I2
sI2
I2
sI3
I1
sI8
I1
sI9
I2
ssg325
(dp1421
I8
I1
sI9
I1
ssg777
(dp1422
I1
I1
sI3
I1
ssg145
(dp1423
I8
I1
sI3
I1
ssg147
(dp1424
I7
I2
ssS'ink'
p1425
(dp1426
I9
I1
ssS'throat'
p1427
(dp1428
I4
I1
ssg153
(dp1429
I4
I2
sI5
I4
ssS'clinical medicine'
p1430
(dp1431
I9
I1
ssg971
(dp1432
I6
I1
ssS'tick bites'
p1433
(dp1434
I5
I1
ssg155
(dp1435
I5
I1
ssg159
(dp1436
I4
I1
sI5
I1
ssg163
(dp1437
I0
I1
sI2
I1
sI3
I2
sI4
I1
sI5
I1
sI6
I1
sI8
I1
sI9
I1
ssg165
(dp1438
I0
I1
sI4
I2
sI5
I2
sI6
I1
sI7
I1
sI9
I1
ssg167
(dp1439
I0
I1
sI1
I1
sI2
I2
sI3
I1
sI4
I1
sI5
I3
sI6
I1
sI7
I1
ssS'nurse practitioner'
p1440
(dp1441
I8
I1
ssS'insect'
p1442
(dp1443
I3
I1
ssg173
(dp1444
I9
I1
sI4
I1
ssg363
(dp1445
I0
I1
sI1
I1
sI2
I1
sI6
I1
ssg177
(dp1446
I4
I1
ssS'differential diagnosis'
p1447
(dp1448
I2
I1
ssS'beds'
p1449
(dp1450
I5
I1
ssg980
(dp1451
I6
I1
ssg187
(dp1452
I0
I1
sI8
I1
sI2
I1
ssg825
(dp1453
I1
I1
sI3
I1
sssS'29'
p1454
(dp1455
g1317
(dp1456
I7
I1
ssg195
(dp1457
I7
I1
ssS'mucosa'
p1458
(dp1459
I4
I1
ssS'dipyridamole'
p1460
(dp1461
I4
I1
ssg641
(dp1462
I6
I1
ssS'kawas'
p1463
(dp1464
I0
I1
sI1
I3
sI2
I3
sI4
I2
sI5
I1
sI7
I1
sI8
I1
sI9
I1
ssg382
(dp1465
I1
I1
sI2
I1
sI3
I1
ssS'fiv'
p1466
(dp1467
I1
I1
sI2
I1
ssg7
(dp1468
I0
I1
sI9
I1
ssg720
(dp1469
I2
I1
sI7
I1
ssg208
(dp1470
I0
I1
sI1
I1
sI3
I3
sI5
I1
sI6
I1
sI9
I1
ssS'oropharynx'
p1471
(dp1472
I4
I1
sI5
I1
ssS'lip'
p1473
(dp1474
I0
I1
sI1
I1
sI4
I1
sI5
I1
sI7
I1
ssg601
(dp1475
I5
I1
ssg226
(dp1476
I4
I1
sI7
I1
ssS'pharynx'
p1477
(dp1478
I4
I1
sI5
I1
sI7
I1
ssS'ants'
p1479
(dp1480
I7
I1
ssS'hands'
p1481
(dp1482
I0
I1
sI1
I1
sI9
I1
sI7
I1
ssS'artery'
p1483
(dp1484
I7
I1
ssg867
(dp1485
I9
I1
ssS'hosta'
p1486
(dp1487
I3
I1
ssS'cognition'
p1488
(dp1489
I0
I1
ssg23
(dp1490
I1
I1
sI2
I1
ssS'exanthem'
p1491
(dp1492
I7
I1
ssg31
(dp1493
I2
I1
sI3
I1
ssS'blood vessel'
p1494
(dp1495
I2
I2
ssg33
(dp1496
I4
I1
ssg35
(dp1497
I7
I1
ssg535
(dp1498
I1
I1
sI2
I1
sI9
I1
ssg37
(dp1499
I4
I1
ssS'lips'
p1500
(dp1501
I0
I1
sI1
I1
sI4
I1
sI5
I1
sI7
I1
ssg183
(dp1502
I5
I1
ssg1322
(dp1503
I1
I1
ssS'affects'
p1504
(dp1505
I2
I1
ssg51
(dp1506
I4
I1
sI5
I1
sI6
I1
ssS'conjunctivitis'
p1507
(dp1508
I0
I1
sI1
I1
sI5
I1
sI6
I1
sI7
I1
sI9
I1
ssg429
(dp1509
I1
I1
ssg19
(dp1510
I3
I1
ssg61
(dp1511
I4
I1
ssg65
(dp1512
I9
I1
sI7
I1
ssg67
(dp1513
I3
I1
sI4
I1
ssg261
(dp1514
I6
I1
ssg1313
(dp1515
I2
I1
ssS'conjunctiva'
p1516
(dp1517
I3
I1
sI4
I1
ssS'tongue'
p1518
(dp1519
I0
I1
sI1
I1
sI3
I1
sI4
I1
sI5
I1
sI7
I1
sI9
I1
ssg446
(dp1520
I5
I1
ssS'pica'
p1521
(dp1522
I7
I1
ssS'aneurysms'
p1523
(dp1524
I7
I1
ssS'feet'
p1525
(dp1526
I1
I1
sI5
I1
ssS'kawa'
p1527
(dp1528
I0
I1
sI1
I3
sI2
I3
sI4
I2
sI5
I1
sI7
I1
sI8
I1
sI9
I1
ssS'temperature'
p1529
(dp1530
I5
I1
ssg101
(dp1531
I0
I1
sI1
I1
sI2
I1
sI3
I1
sI6
I1
ssS'blood vessels'
p1532
(dp1533
I2
I2
ssS'adult'
p1534
(dp1535
I3
I1
ssS'kawasaki disease'
p1536
(dp1537
I0
I1
sI1
I3
sI2
I3
sI4
I2
sI5
I1
sI7
I1
sI8
I1
sI9
I1
ssg197
(dp1538
I0
I1
sI1
I1
sI2
I1
sI3
I1
sI6
I1
ssS'injection'
p1539
(dp1540
I4
I2
ssg117
(dp1541
I2
I1
sI3
I1
sI5
I1
sI6
I2
sI8
I1
sI9
I1
ssS'hypotension'
p1542
(dp1543
I3
I1
ssg39
(dp1544
I0
I1
sI1
I1
sI2
I1
sI4
I1
ssS'rida'
p1545
(dp1546
I4
I1
ssg422
(dp1547
I6
I1
ssg131
(dp1548
I4
I1
ssg133
(dp1549
I0
I1
sI1
I1
sI2
I1
sI3
I1
sI4
I2
sI5
I1
sI6
I1
sI7
I1
sI9
I1
ssS'aneurysm'
p1550
(dp1551
I7
I1
ssS'infants'
p1552
(dp1553
I7
I1
ssg139
(dp1554
I8
I1
sI6
I1
ssS'adults'
p1555
(dp1556
I3
I1
ssg185
(dp1557
I0
I1
sI1
I3
sI2
I4
sI4
I2
sI5
I1
sI7
I1
sI8
I1
sI9
I1
ssg145
(dp1558
I7
I2
ssg147
(dp1559
I5
I1
ssS'education'
p1560
(dp1561
I5
I1
ssg153
(dp1562
I4
I2
sI7
I1
ssg977
(dp1563
I4
I1
ssg155
(dp1564
I1
I2
sI4
I1
ssS'vitis'
p1565
(dp1566
I0
I1
sI1
I1
sI5
I2
sI6
I1
sI7
I1
sI9
I1
ssS'hyperemia'
p1567
(dp1568
I3
I1
ssg163
(dp1569
I2
I1
sI3
I1
sI4
I1
sI5
I1
sI6
I1
ssg165
(dp1570
I0
I2
sI1
I1
sI3
I3
sI4
I1
sI6
I2
sI7
I1
sI8
I1
sI9
I1
ssg167
(dp1571
I4
I1
ssg505
(dp1572
I0
I1
sI1
I1
sI9
I1
sI5
I1
sI7
I1
ssS'mouth'
p1573
(dp1574
I1
I1
ssg591
(dp1575
I2
I2
ssg817
(dp1576
I2
I1
sI7
I1
ssg961
(dp1577
I4
I1
ssg1447
(dp1578
I0
I1
ssg187
(dp1579
I0
I1
sI9
I1
ssg516
(dp1580
I0
I1
ssS'erythema'
p1581
(dp1582
I1
I1
sI3
I1
sI5
I2
sI7
I1
sssS'1'
p1583
(dp1584
S'paper'
p1585
(dp1586
I8
I1
ssg535
(dp1587
I8
I1
sI2
I1
sI5
I1
sI7
I1
ssg1322
(dp1588
I0
I1
sI1
I1
sI4
I1
sI8
I1
sI9
I1
ssg1121
(dp1589
I7
I3
ssS'hypoxi'
p1590
(dp1591
I0
I1
sI1
I1
sI2
I1
sI4
I1
sI5
I1
sI7
I1
ssg1326
(dp1592
I6
I1
ssg147
(dp1593
I2
I1
sI7
I1
ssS'coffee'
p1594
(dp1595
I0
I1
sI1
I1
sI2
I1
sI3
I3
sI4
I1
sI5
I1
sI8
I1
ssS'tics'
p1596
(dp1597
I9
I1
ssS'biopsy'
p1598
(dp1599
I7
I1
ssg19
(dp1600
I0
I1
sI1
I1
sI5
I1
ssS'capillary'
p1601
(dp1602
I9
I2
ssS'cold'
p1603
(dp1604
I9
I1
sI4
I1
ssS'oxygen'
p1605
(dp1606
I2
I1
ssg1150
(dp1607
I7
I3
ssg43
(dp1608
I8
I3
sI7
I1
ssS'ventilation'
p1609
(dp1610
I7
I1
ssS'subdural hematoma'
p1611
(dp1612
I6
I1
ssg1153
(dp1613
I9
I2
ssg31
(dp1614
I4
I1
ssS'blood transfusion'
p1615
(dp1616
I6
I1
ssg35
(dp1617
I7
I1
ssS'bleeding'
p1618
(dp1619
I4
I2
ssS'plant'
p1620
(dp1621
I8
I1
ssS'pulse'
p1622
(dp1623
I4
I1
ssg1354
(dp1624
I5
I1
ssg203
(dp1625
I7
I1
ssg250
(dp1626
I7
I1
ssS'acute subdural hematoma'
p1627
(dp1628
I6
I1
ssS'cardiogenic shock'
p1629
(dp1630
I7
I3
ssg255
(dp1631
I6
I1
ssg57
(dp1632
I8
I3
ssg63
(dp1633
I8
I1
ssg65
(dp1634
I1
I1
ssg67
(dp1635
I8
I1
sI2
I1
sI4
I1
sI5
I2
sI6
I1
ssg71
(dp1636
I9
I1
sI4
I1
ssS'2 me'
p1637
(dp1638
I8
I2
ssg266
(dp1639
I2
I1
sI5
I1
ssS'r gene'
p1640
(dp1641
I8
I1
ssg268
(dp1642
I5
I1
sI6
I1
ssg701
(dp1643
I8
I1
ssS'mite'
p1644
(dp1645
I4
I1
ssS'respiration'
p1646
(dp1647
I2
I1
ssS'language'
p1648
(dp1649
I0
I1
ssS'coa'
p1650
(dp1651
I3
I1
ssS'sweat'
p1652
(dp1653
I8
I1
ssg446
(dp1654
I8
I1
ssS'heart muscle'
p1655
(dp1656
I7
I1
ssg141
(dp1657
I7
I1
ssS'perfusion'
p1658
(dp1659
I9
I1
ssg103
(dp1660
I4
I1
ssg296
(dp1661
I0
I1
sI1
I1
sI4
I1
sI6
I1
sI9
I1
ssS'emesis'
p1662
(dp1663
I0
I1
sI1
I1
sI4
I1
ssS'life'
p1664
(dp1665
I7
I1
ssg1534
(dp1666
I9
I1
ssg117
(dp1667
I0
I1
sI1
I1
sI2
I1
sI3
I1
sI4
I1
sI5
I2
sI6
I3
sI7
I1
sI8
I2
ssg1542
(dp1668
I0
I1
sI1
I1
sI5
I1
ssg1408
(dp1669
I6
I1
ssS'vasoconstriction'
p1670
(dp1671
I7
I1
ssg39
(dp1672
I8
I1
sI9
I1
sI4
I1
ssg131
(dp1673
I4
I1
sI5
I1
ssg133
(dp1674
I0
I1
sI1
I1
sI2
I1
sI3
I3
sI4
I2
sI5
I1
sI6
I1
sI8
I1
ssg325
(dp1675
I2
I1
ssg1555
(dp1676
I9
I1
ssg145
(dp1677
I8
I1
sI5
I1
ssg334
(dp1678
I0
I1
sI1
I1
sI4
I1
sI6
I1
sI9
I1
ssg340
(dp1679
I2
I1
ssg153
(dp1680
I2
I1
ssS'constriction'
p1681
(dp1682
I7
I1
ssg973
(dp1683
I7
I1
ssS'hematoma'
p1684
(dp1685
I6
I1
ssg155
(dp1686
I2
I1
sI4
I1
sI5
I1
sI7
I1
ssg796
(dp1687
I9
I1
ssg163
(dp1688
I9
I1
sI2
I1
ssg354
(dp1689
I0
I1
sI8
I1
ssg165
(dp1690
I6
I1
ssg167
(dp1691
I2
I1
sI5
I1
ssg171
(dp1692
I2
I1
ssg505
(dp1693
I9
I1
ssg589
(dp1694
I7
I1
ssg591
(dp1695
I3
I1
sI4
I1
sI6
I1
ssg292
(dp1696
I5
I1
sI6
I1
ssg819
(dp1697
I5
I1
ssg1447
(dp1698
I9
I1
ssS'hyperventilation'
p1699
(dp1700
I7
I1
ssg187
(dp1701
I8
I1
sI1
I1
sI3
I1
sI9
I1
ssg373
(dp1702
I7
I1
sssS'3'
p1703
(dp1704
g1012
(dp1705
I1
I1
ssg193
(dp1706
I3
I1
ssS'embolism'
p1707
(dp1708
I9
I3
ssg195
(dp1709
I9
I1
sI3
I1
ssS'pulses'
p1710
(dp1711
I1
I1
ssg378
(dp1712
I8
I1
ssS'ulcer'
p1713
(dp1714
I5
I1
ssg380
(dp1715
I6
I1
ssg1603
(dp1716
I1
I1
ssg384
(dp1717
I8
I1
ssg5
(dp1718
I2
I1
ssS'phlebitis'
p1719
(dp1720
I9
I1
ssg9
(dp1721
I0
I1
sI1
I1
sI2
I2
sI3
I1
sI4
I1
sI6
I1
sI7
I1
sI8
I1
sI9
I1
ssg212
(dp1722
I6
I1
sI7
I1
ssS'pulmonary embolism'
p1723
(dp1724
I9
I3
ssg13
(dp1725
I0
I1
sI8
I1
ssg15
(dp1726
I8
I1
ssg309
(dp1727
I7
I1
ssg17
(dp1728
I6
I1
sI7
I1
ssg21
(dp1729
I0
I1
sI8
I1
sI2
I1
sI6
I1
sI7
I1
ssg664
(dp1730
I5
I1
ssg398
(dp1731
I6
I1
ssg334
(dp1732
I1
I1
ssg43
(dp1733
I5
I1
ssg674
(dp1734
I3
I1
ssS'radio'
p1735
(dp1736
I9
I1
ssg406
(dp1737
I8
I1
ssS'cramp'
p1738
(dp1739
I5
I1
ssg313
(dp1740
I3
I1
ssg35
(dp1741
I8
I1
sI4
I3
sI5
I1
ssg1015
(dp1742
I1
I1
ssg239
(dp1743
I5
I1
ssg37
(dp1744
I9
I1
ssg1622
(dp1745
I1
I1
ssg686
(dp1746
I4
I1
ssg1354
(dp1747
I9
I1
ssg203
(dp1748
I6
I1
ssS'heart failure'
p1749
(dp1750
I5
I1
ssS'tonsil'
p1751
(dp1752
I7
I1
ssg131
(dp1753
I6
I1
ssg51
(dp1754
I8
I1
sI9
I1
ssg53
(dp1755
I3
I1
ssg19
(dp1756
I6
I1
ssg99
(dp1757
I0
I1
sI6
I1
sI7
I1
ssg65
(dp1758
I0
I1
sI1
I1
sI7
I1
ssg67
(dp1759
I1
I1
sI2
I2
sI3
I1
sI6
I1
ssg263
(dp1760
I1
I1
ssg71
(dp1761
I8
I1
sI2
I1
ssg1191
(dp1762
I1
I1
ssg268
(dp1763
I4
I1
sI5
I1
ssg73
(dp1764
I3
I1
ssS'physiology'
p1765
(dp1766
I4
I1
ssS'radiography'
p1767
(dp1768
I9
I1
ssg77
(dp1769
I2
I1
sI3
I1
ssS'ekg'
p1770
(dp1771
I6
I1
ssg79
(dp1772
I0
I1
sI8
I1
ssg1652
(dp1773
I7
I1
ssg1521
(dp1774
I9
I1
ssg141
(dp1775
I4
I1
sI5
I1
ssg1326
(dp1776
I9
I1
ssg33
(dp1777
I7
I1
ssg93
(dp1778
I4
I1
ssS'learning'
p1779
(dp1780
I8
I1
ssg95
(dp1781
I8
I1
ssS'medical student'
p1782
(dp1783
I5
I1
ssS'sweating'
p1784
(dp1785
I7
I1
ssS'duodenal ulcer'
p1786
(dp1787
I5
I1
ssg101
(dp1788
I6
I1
ssS'tonsils'
p1789
(dp1790
I7
I1
ssg296
(dp1791
I1
I1
ssS'problem based learning'
p1792
(dp1793
I8
I1
ssg457
(dp1794
I6
I1
ssS'type 2 diabetes mellitus'
p1795
(dp1796
I6
I1
ssS'cardiology'
p1797
(dp1798
I7
I1
ssg1229
(dp1799
I6
I1
ssg462
(dp1800
I1
I1
ssS'medical students'
p1801
(dp1802
I5
I1
ssg1581
(dp1803
I1
I1
ssS'acyclovir'
p1804
(dp1805
I3
I1
ssg340
(dp1806
I6
I1
ssg117
(dp1807
I0
I2
sI1
I1
sI2
I1
sI3
I1
sI4
I2
sI5
I3
sI6
I2
sI7
I1
sI8
I4
ssg119
(dp1808
I7
I1
ssg123
(dp1809
I1
I1
sI2
I1
ssg1408
(dp1810
I9
I1
ssg181
(dp1811
I8
I1
sI3
I1
ssg475
(dp1812
I6
I1
ssg39
(dp1813
I9
I1
sI3
I1
sI4
I1
sI5
I1
ssg422
(dp1814
I2
I1
sI7
I1
ssg949
(dp1815
I8
I1
ssg49
(dp1816
I4
I1
ssg133
(dp1817
I9
I2
sI4
I1
ssg336
(dp1818
I6
I1
ssg139
(dp1819
I2
I1
sI3
I1
sI6
I2
ssg325
(dp1820
I4
I1
ssS'forearm'
p1821
(dp1822
I6
I1
ssg145
(dp1823
I6
I1
ssg147
(dp1824
I0
I1
sI4
I1
sI7
I1
ssg1110
(dp1825
I6
I1
ssS'signs and symptoms'
p1826
(dp1827
I9
I1
ssg787
(dp1828
I4
I1
ssg968
(dp1829
I1
I1
ssg153
(dp1830
I1
I1
sI2
I1
ssS'thrombophlebitis'
p1831
(dp1832
I9
I1
ssg1274
(dp1833
I1
I1
ssg155
(dp1834
I9
I1
sI4
I2
sI7
I1
ssS'digoxin'
p1835
(dp1836
I5
I1
ssg159
(dp1837
I1
I1
ssg803
(dp1838
I0
I1
sI1
I1
ssg163
(dp1839
I9
I1
sI2
I1
sI3
I1
ssg165
(dp1840
I8
I1
sI1
I1
sI2
I1
sI5
I1
ssg167
(dp1841
I0
I2
sI1
I2
sI2
I1
sI3
I1
sI5
I1
sI6
I1
sI7
I1
sI8
I1
ssS'students'
p1842
(dp1843
I2
I1
sI5
I1
ssg171
(dp1844
I4
I1
ssg173
(dp1845
I7
I1
ssg591
(dp1846
I1
I1
ssg994
(dp1847
I2
I1
sI5
I1
ssg177
(dp1848
I3
I1
sI7
I2
ssg292
(dp1849
I5
I1
ssg185
(dp1850
I5
I1
ssg537
(dp1851
I7
I1
ssS'nasa'
p1852
(dp1853
I2
I1
ssg187
(dp1854
I0
I1
sI9
I1
sI4
I1
sI5
I1
sssS'2'
p1855
(dp1856
S'influenza'
p1857
(dp1858
I1
I1
ssS'pneumonias'
p1859
(dp1860
I3
I1
ssS'immunocompromised patient'
p1861
(dp1862
I3
I1
ssS'bronchoscopy'
p1863
(dp1864
I9
I1
ssg720
(dp1865
I2
I1
sI5
I1
ssg212
(dp1866
I1
I1
sI2
I1
ssS'prison'
p1867
(dp1868
I5
I1
sI6
I1
ssS'intranuclear inclusion bodies'
p1869
(dp1870
I0
I1
sI6
I1
ssS'apoptosis'
p1871
(dp1872
I8
I1
ssg17
(dp1873
I5
I1
sI6
I1
ssg1598
(dp1874
I2
I1
sI6
I1
ssS'therapy'
p1875
(dp1876
I9
I1
sI7
I1
ssS'nuclear inclusion bodies'
p1877
(dp1878
I0
I1
sI6
I1
ssg664
(dp1879
I7
I1
ssg27
(dp1880
I6
I1
ssg43
(dp1881
I4
I1
sI5
I3
sI6
I1
ssg674
(dp1882
I8
I1
ssg1488
(dp1883
I3
I1
ssS'viruses'
p1884
(dp1885
I3
I1
ssS'athlete'
p1886
(dp1887
I8
I1
ssg31
(dp1888
I1
I2
ssg33
(dp1889
I9
I1
sI3
I1
sI7
I1
ssg35
(dp1890
I3
I1
sI5
I1
ssS'nuclear inclusion'
p1891
(dp1892
I0
I1
sI1
I1
sI5
I1
sI6
I1
ssS'cytomegalovirus'
p1893
(dp1894
I1
I1
ssg1622
(dp1895
I9
I1
ssg39
(dp1896
I9
I1
sI2
I3
sI4
I1
sI5
I2
ssg883
(dp1897
I1
I1
ssS'immunocompromised patients'
p1898
(dp1899
I3
I1
ssg41
(dp1900
I9
I1
ssS'nevi'
p1901
(dp1902
I6
I1
ssS'herpes simplex virus'
p1903
(dp1904
I1
I1
ssg250
(dp1905
I6
I1
ssg556
(dp1906
I4
I1
sI6
I1
sI7
I1
ssS'inclusion bodies'
p1907
(dp1908
I0
I1
sI8
I2
sI6
I1
ssg57
(dp1909
I5
I1
ssg61
(dp1910
I8
I1
sI4
I1
sI7
I1
ssg63
(dp1911
I2
I1
ssg65
(dp1912
I0
I1
ssg171
(dp1913
I8
I1
ssg67
(dp1914
I1
I3
sI3
I1
sI5
I1
sI6
I1
sI8
I1
sI9
I1
ssg71
(dp1915
I2
I1
sI5
I1
sI6
I1
ssg1191
(dp1916
I9
I1
ssS'viral pneumonia'
p1917
(dp1918
I3
I2
ssg268
(dp1919
I8
I1
ssS'intranuclear inclusion'
p1920
(dp1921
I0
I1
sI1
I1
sI5
I1
sI6
I1
ssg73
(dp1922
I0
I1
sI1
I1
sI2
I1
sI3
I1
sI4
I1
sI5
I1
sI7
I1
sI9
I1
ssg81
(dp1923
I9
I1
ssg83
(dp1924
I2
I1
sI7
I1
ssg85
(dp1925
I3
I1
ssg1521
(dp1926
I3
I1
ssg93
(dp1927
I6
I1
ssS'athletes foot'
p1928
(dp1929
I8
I1
ssg99
(dp1930
I4
I1
ssS'dna'
p1931
(dp1932
I8
I1
ssg1529
(dp1933
I9
I1
ssS'dna virus'
p1934
(dp1935
I8
I1
ssg101
(dp1936
I2
I1
sI3
I1
sI7
I1
ssg103
(dp1937
I9
I1
ssS'adenovirus'
p1938
(dp1939
I1
I1
ssg516
(dp1940
I3
I1
ssS'cultures'
p1941
(dp1942
I1
I1
ssg462
(dp1943
I8
I1
ssS'chemotherapy'
p1944
(dp1945
I7
I1
ssg117
(dp1946
I0
I2
sI1
I3
sI2
I3
sI3
I1
sI4
I2
sI5
I2
sI6
I2
sI7
I4
sI8
I2
sI9
I1
ssg628
(dp1947
I4
I1
sI6
I1
sI7
I1
ssg315
(dp1948
I3
I1
ssg127
(dp1949
I8
I1
ssg129
(dp1950
I1
I2
sI3
I2
ssg131
(dp1951
I1
I3
sI3
I1
sI5
I1
sI6
I1
sI9
I1
ssg133
(dp1952
I0
I1
sI2
I1
sI3
I1
sI5
I2
sI6
I2
sI7
I1
sI8
I1
sI9
I1
ssg320
(dp1953
I1
I1
ssg135
(dp1954
I9
I1
ssg139
(dp1955
I0
I1
sI3
I1
sI4
I1
ssg325
(dp1956
I2
I1
ssg777
(dp1957
I7
I1
ssS'cytoplasm'
p1958
(dp1959
I8
I1
ssg145
(dp1960
I0
I1
sI2
I1
ssg338
(dp1961
I3
I1
ssg147
(dp1962
I9
I2
sI2
I1
sI6
I1
ssg1110
(dp1963
I7
I1
ssg1826
(dp1964
I3
I1
ssg1427
(dp1965
I3
I1
ssg340
(dp1966
I2
I1
ssg153
(dp1967
I8
I1
sI1
I1
sI9
I1
ssS'immunosuppression'
p1968
(dp1969
I5
I1
ssg1274
(dp1970
I9
I1
ssg155
(dp1971
I9
I1
ssS'neutropenia'
p1972
(dp1973
I7
I1
ssg163
(dp1974
I9
I2
sI2
I1
sI5
I2
ssg165
(dp1975
I0
I1
sI1
I1
sI2
I1
sI3
I1
sI4
I1
sI7
I1
sI8
I1
sI9
I1
ssS'viral pneumonias'
p1976
(dp1977
I3
I1
ssS'leukemia'
p1978
(dp1979
I7
I1
ssS'virus'
p1980
(dp1981
I8
I2
sI1
I3
sI3
I1
ssg591
(dp1982
I1
I1
sI9
I1
ssg817
(dp1983
I2
I1
sI5
I1
ssg1297
(dp1984
I5
I1
sI6
I1
ssg177
(dp1985
I3
I1
ssS'bronchoalveolar lavage'
p1986
(dp1987
I0
I1
sI2
I1
sI4
I1
sI6
I1
sI7
I2
sI9
I1
ssg179
(dp1988
I2
I1
ssS'foot'
p1989
(dp1990
I8
I1
ssS'arthralgia'
p1991
(dp1992
I3
I1
ssg1447
(dp1993
I6
I1
ssg187
(dp1994
I0
I1
sI1
I1
sI2
I1
sI3
I1
sI4
I1
sI6
I2
ssg825
(dp1995
I7
I1
ssS'athletes'
p1996
(dp1997
I8
I1
ssg1008
(dp1998
I2
I1
sI4
I1
sI7
I1
sssS'5'
p1999
(dp2000
g1857
(dp2001
I8
I1
ssS'arthralgias'
p2002
(dp2003
I9
I1
ssg382
(dp2004
I7
I2
ssg720
(dp2005
I1
I1
ssS'incidence'
p2006
(dp2007
I8
I1
ssg212
(dp2008
I2
I1
ssg13
(dp2009
I0
I1
ssS'adult onset stills disease'
p2010
(dp2011
I9
I1
ssS'rheumatoid arthritis'
p2012
(dp2013
I0
I1
sI5
I2
ssS'haemophilus'
p2014
(dp2015
I8
I1
ssg1135
(dp2016
I2
I1
ssg1066
(dp2017
I0
I3
sI1
I3
sI2
I1
sI3
I2
sI4
I1
sI5
I4
sI6
I3
sI7
I1
ssg23
(dp2018
I1
I1
sI5
I1
sI7
I1
ssg605
(dp2019
I8
I1
ssg27
(dp2020
I3
I1
ssg674
(dp2021
I0
I1
ssS'ankles'
p2022
(dp2023
I7
I1
ssS'young adult'
p2024
(dp2025
I0
I1
sI1
I1
sI2
I1
sI4
I1
sI7
I1
sI8
I1
sI9
I1
ssg35
(dp2026
I0
I5
sI2
I3
sI4
I6
sI5
I3
sI6
I2
sI7
I1
sI8
I4
sI9
I3
ssS'age of onset'
p2027
(dp2028
I1
I1
ssg127
(dp2029
I8
I1
ssg248
(dp2030
I8
I1
ssg1504
(dp2031
I1
I1
sI5
I1
ssg556
(dp2032
I8
I1
ssg53
(dp2033
I6
I1
ssg429
(dp2034
I1
I1
sI2
I1
sI4
I1
sI5
I1
sI6
I1
ssg1181
(dp2035
I4
I1
ssg63
(dp2036
I1
I1
sI7
I1
ssg358
(dp2037
I0
I2
sI2
I3
sI4
I4
sI5
I3
sI6
I2
sI7
I1
sI8
I3
sI9
I2
ssg67
(dp2038
I3
I1
sI4
I1
ssg71
(dp2039
I8
I1
sI1
I1
sI2
I1
sI5
I2
sI6
I1
ssg266
(dp2040
I2
I1
ssg1765
(dp2041
I3
I1
ssS'synovia'
p2042
(dp2043
I8
I1
ssg75
(dp2044
I9
I1
sI4
I1
sI7
I3
ssg79
(dp2045
I0
I1
ssS'acute rheumatic fever'
p2046
(dp2047
I9
I1
sI4
I1
ssg1521
(dp2048
I9
I1
sI2
I1
ssS'aortic regurgitation'
p2049
(dp2050
I7
I1
ssg89
(dp2051
I0
I1
sI9
I1
sI4
I1
sI5
I2
sI7
I3
ssg33
(dp2052
I1
I1
sI4
I1
sI9
I1
sI7
I1
ssg926
(dp2053
I1
I1
ssg101
(dp2054
I7
I2
ssS'vagina'
p2055
(dp2056
I6
I1
ssg294
(dp2057
I7
I1
ssS'haemophilus influenzae'
p2058
(dp2059
I8
I1
ssg462
(dp2060
I8
I1
sI2
I1
sI4
I1
sI6
I1
ssg1534
(dp2061
I0
I1
sI1
I1
sI2
I1
sI4
I1
sI7
I1
sI8
I1
sI9
I2
ssg197
(dp2062
I7
I2
ssS'penis'
p2063
(dp2064
I6
I1
ssg117
(dp2065
I8
I1
ssg470
(dp2066
I5
I1
ssg628
(dp2067
I8
I1
ssg39
(dp2068
I0
I1
sI1
I2
sI2
I1
sI8
I1
sI9
I1
ssg422
(dp2069
I7
I1
ssg949
(dp2070
I1
I1
ssg131
(dp2071
I4
I1
ssg133
(dp2072
I0
I1
sI1
I1
sI2
I1
sI4
I1
sI5
I1
sI7
I1
sI8
I2
sI9
I2
ssg325
(dp2073
I9
I1
sI2
I1
ssg1555
(dp2074
I8
I1
sI1
I1
sI9
I1
sI7
I1
ssS'joints'
p2075
(dp2076
I1
I1
sI5
I2
sI6
I1
sI7
I1
ssg1019
(dp2077
I0
I2
sI3
I1
ssg145
(dp2078
I8
I1
sI2
I1
sI4
I1
ssg147
(dp2079
I0
I1
sI8
I1
sI4
I1
sI9
I1
sI7
I1
ssg340
(dp2080
I2
I1
ssg153
(dp2081
I0
I3
sI8
I1
sI2
I1
sI5
I2
ssg971
(dp2082
I6
I1
ssg155
(dp2083
I2
I1
sI7
I2
ssg159
(dp2084
I2
I1
ssg163
(dp2085
I0
I4
sI1
I1
sI4
I1
sI7
I4
sI8
I3
sI9
I1
ssg354
(dp2086
I8
I1
ssg165
(dp2087
I1
I1
sI2
I1
sI4
I2
sI9
I3
sI7
I3
ssg167
(dp2088
I0
I2
sI3
I2
sI5
I1
ssS'wrists'
p2089
(dp2090
I7
I1
ssg171
(dp2091
I0
I1
ssS'wrist'
p2092
(dp2093
I7
I1
ssg817
(dp2094
I1
I1
ssg363
(dp2095
I7
I1
ssg1297
(dp2096
I0
I1
ssS'reactive arthritis'
p2097
(dp2098
I2
I3
sI4
I1
sI6
I2
ssS'young adults'
p2099
(dp2100
I8
I1
sI1
I1
sI9
I1
sI7
I1
ssg1991
(dp2101
I9
I2
sI4
I1
ssg185
(dp2102
I9
I1
sI4
I1
sI5
I1
sI7
I2
ssg1447
(dp2103
I1
I1
ssg980
(dp2104
I6
I1
ssg187
(dp2105
I1
I2
sI9
I1
ssg1008
(dp2106
I1
I1
sssS'4'
p2107
(dp2108
g141
(dp2109
I8
I1
sI9
I2
sI5
I1
ssg81
(dp2110
I2
I1
ssg35
(dp2111
I8
I1
sI9
I2
sI5
I1
ssg325
(dp2112
I7
I1
ssS'coronary angiography'
p2113
(dp2114
I0
I1
sI5
I1
ssg835
(dp2115
I3
I1
ssS'africa'
p2116
(dp2117
I4
I1
ssg1297
(dp2118
I4
I1
ssg185
(dp2119
I0
I1
sI9
I2
sI2
I1
sI5
I1
ssg145
(dp2120
I8
I1
sI1
I1
sI4
I1
ssg91
(dp2121
I2
I1
ssg334
(dp2122
I0
I1
sI1
I2
sI2
I1
sI3
I3
sI4
I1
sI5
I1
sI7
I1
ssg165
(dp2123
I7
I1
ssg336
(dp2124
I0
I1
ssg41
(dp2125
I2
I1
ssS'left ventricular dysfunction'
p2126
(dp2127
I0
I1
ssg167
(dp2128
I0
I1
sI1
I1
sI3
I1
sI4
I1
sI5
I1
sI6
I1
sI7
I1
ssg340
(dp2129
I4
I1
ssg1046
(dp2130
I5
I2
sI6
I1
ssg153
(dp2131
I2
I2
sI5
I2
sI6
I1
ssg117
(dp2132
I0
I2
sI2
I1
sI3
I1
sI4
I1
sI5
I2
sI7
I1
sI8
I2
sI9
I2
ssS'fibroma'
p2133
(dp2134
I8
I1
ssS'ventricular tachycardia'
p2135
(dp2136
I3
I1
ssg368
(dp2137
I2
I1
sI3
I1
ssg1217
(dp2138
I3
I1
ssS'heart valve'
p2139
(dp2140
I8
I1
ssg216
(dp2141
I8
I1
ssS'ischemic heart disease'
p2142
(dp2143
I9
I2
sI5
I1
ssg9
(dp2144
I0
I1
sI1
I2
sI3
I1
sI4
I1
sI5
I1
sI6
I1
ssS'ventricular dysfunction'
p2145
(dp2146
I0
I1
ssS'prinzmetals angina'
p2147
(dp2148
I6
I1
ssS'cardiac dysrhythmia'
p2149
(dp2150
I3
I1
ssS'coronary sinus'
p2151
(dp2152
I8
I1
ssg57
(dp2153
I3
I1
ssg296
(dp2154
I0
I1
sI2
I1
sI3
I2
sI7
I1
ssg69
(dp2155
I2
I1
ssg65
(dp2156
I0
I1
sI3
I1
ssg163
(dp2157
I4
I1
ssS'ecg'
p2158
(dp2159
I3
I2
ssS'angiography'
p2160
(dp2161
I0
I1
sI5
I1
ssg13
(dp2162
I0
I2
sI2
I1
sI3
I1
sI4
I1
ssg67
(dp2163
I1
I1
sI2
I1
sI5
I2
sI6
I1
ssg853
(dp2164
I0
I1
ssg15
(dp2165
I3
I1
ssg263
(dp2166
I7
I1
ssg139
(dp2167
I4
I1
ssg17
(dp2168
I9
I1
ssg71
(dp2169
I0
I1
sI3
I2
sI5
I1
sI6
I2
sI7
I1
sI8
I1
ssg19
(dp2170
I0
I1
ssg21
(dp2171
I0
I1
sI1
I1
sI3
I1
sI4
I1
sI5
I1
sI6
I1
ssg1534
(dp2172
I1
I1
ssg1804
(dp2173
I2
I1
ssS'sinus tachycardia'
p2174
(dp2175
I0
I1
sI2
I1
sI3
I1
ssS'heart disease'
p2176
(dp2177
I9
I2
sI5
I1
ssg973
(dp2178
I9
I1
ssg244
(dp2179
I7
I1
ssg1605
(dp2180
I9
I1
ssg115
(dp2181
I2
I1
ssg591
(dp2182
I9
I1
ssg1770
(dp2183
I2
I1
sI7
I1
ssg79
(dp2184
I0
I2
sI2
I1
sI3
I1
sI4
I1
ssS'metals'
p2185
(dp2186
I6
I1
ssg39
(dp2187
I2
I1
ssg43
(dp2188
I3
I1
ssg131
(dp2189
I1
I1
sI5
I2
sI6
I1
ssg133
(dp2190
I0
I1
sI8
I1
sI2
I1
sI4
I1
ssg187
(dp2191
I0
I1
ssg27
(dp2192
I0
I1
sI3
I1
sI5
I1
sI7
I1
ssg535
(dp2193
I7
I1
ssg135
(dp2194
I2
I1
ssg175
(dp2195
I2
I1
ssg446
(dp2196
I7
I1
ssg147
(dp2197
I2
I1
sI5
I1
sI7
I1
sssS'7'
p2198
(dp2199
g822
(dp2200
I6
I1
ssg325
(dp2201
I6
I1
ssS'pleasure'
p2202
(dp2203
I1
I1
sI3
I1
sI4
I1
ssS'colorado'
p2204
(dp2205
I5
I1
ssg1384
(dp2206
I5
I1
ssg835
(dp2207
I5
I1
ssg201
(dp2208
I0
I1
sI2
I1
ssg147
(dp2209
I8
I1
sI2
I1
sI4
I2
sI6
I1
sI7
I1
ssS'perception'
p2210
(dp2211
I8
I1
ssS'anhedonia'
p2212
(dp2213
I0
I1
sI1
I1
sI2
I1
sI3
I1
sI4
I1
sI7
I1
ssg1354
(dp2214
I6
I1
ssg1425
(dp2215
I1
I1
sI4
I1
sI5
I1
sI6
I1
sI7
I1
sI8
I1
sI9
I1
ssg968
(dp2216
I9
I1
ssS'appetite'
p2217
(dp2218
I0
I1
sI1
I1
sI2
I1
sI5
I1
sI6
I1
sI7
I1
sI8
I1
sI9
I1
ssS'depression'
p2219
(dp2220
I2
I1
sI5
I3
sI6
I2
ssS'psychopathology'
p2221
(dp2222
I9
I1
ssg971
(dp2223
I9
I2
ssg250
(dp2224
I2
I1
sI3
I1
sI6
I1
ssS'thinking'
p2225
(dp2226
I1
I1
ssg1173
(dp2227
I0
I1
sI1
I1
sI2
I1
sI5
I1
sI6
I1
sI7
I1
sI8
I1
sI9
I1
ssg101
(dp2228
I0
I2
sI2
I1
ssS'major depressive disorder'
p2229
(dp2230
I6
I1
ssg231
(dp2231
I5
I1
ssg171
(dp2232
I8
I1
sI6
I1
ssg153
(dp2233
I0
I1
sI2
I1
ssg212
(dp2234
I6
I1
ssg155
(dp2235
I2
I1
ssS'phoria'
p2236
(dp2237
I5
I1
ssg177
(dp2238
I5
I1
ssS'crying'
p2239
(dp2240
I9
I1
ssg19
(dp2241
I0
I1
ssg65
(dp2242
I7
I1
ssg163
(dp2243
I9
I1
sI2
I1
ssS'physicians'
p2244
(dp2245
I5
I1
ssS'depressive disorders'
p2246
(dp2247
I0
I2
ssg67
(dp2248
I5
I1
ssS'atp'
p2249
(dp2250
I9
I1
ssg263
(dp2251
I2
I1
ssg71
(dp2252
I5
I1
ssS'appetites'
p2253
(dp2254
I5
I1
ssg1229
(dp2255
I2
I1
sI4
I1
ssg589
(dp2256
I1
I1
sI2
I2
sI4
I1
sI5
I2
sI7
I1
sI8
I1
ssg3
(dp2257
I9
I1
sI3
I1
sI4
I2
ssg197
(dp2258
I0
I1
ssg117
(dp2259
I0
I1
sI1
I2
sI2
I1
sI5
I1
sI7
I1
sI8
I1
sI9
I2
ssS'vein'
p2260
(dp2261
I1
I1
ssg309
(dp2262
I5
I1
ssg13
(dp2263
I2
I1
sI5
I1
ssS'magic'
p2264
(dp2265
I1
I1
ssS'adolescent'
p2266
(dp2267
I8
I1
ssg683
(dp2268
I5
I1
ssg79
(dp2269
I2
I1
sI5
I1
ssg39
(dp2270
I9
I1
ssg127
(dp2271
I0
I1
sI6
I1
ssS'eel'
p2272
(dp2273
I0
I1
sI1
I1
sI2
I1
sI3
I1
sI4
I1
sI6
I1
sI7
I1
sI8
I1
sI9
I1
ssg131
(dp2274
I5
I1
ssg980
(dp2275
I9
I2
ssS'guilt'
p2276
(dp2277
I0
I1
sI1
I1
sI4
I2
sI5
I1
sI7
I1
sI8
I1
sI9
I1
ssg674
(dp2278
I0
I1
sI5
I1
ssg187
(dp2279
I2
I1
sI6
I1
sI7
I1
ssS'depressive disorder'
p2280
(dp2281
I0
I2
sI6
I1
ssg827
(dp2282
I2
I1
ssg637
(dp2283
I0
I1
sI1
I2
sI4
I1
sI5
I1
sI7
I1
sI8
I1
sI9
I1
ssg139
(dp2284
I5
I1
ssS'adolescents'
p2285
(dp2286
I8
I1
ssg31
(dp2287
I0
I1
sI8
I1
sI9
I2
sssS'6'
p2288
(dp2289
g975
(dp2290
I8
I1
ssg115
(dp2291
I4
I1
ssg201
(dp2292
I0
I2
sI1
I1
sI2
I1
sI3
I1
sI4
I1
sI5
I1
sI8
I3
sI9
I1
ssg203
(dp2293
I6
I1
ssS'thirst'
p2294
(dp2295
I5
I1
ssg2217
(dp2296
I1
I1
sI5
I1
sI9
I1
ssg382
(dp2297
I9
I2
ssS'thyroid'
p2298
(dp2299
I8
I1
sI9
I2
sI5
I1
sI1
I1
ssg7
(dp2300
I9
I1
ssg155
(dp2301
I0
I3
sI8
I1
sI2
I1
sI5
I1
sI6
I2
ssg216
(dp2302
I3
I1
sI4
I1
ssS'urination'
p2303
(dp2304
I5
I1
ssg1129
(dp2305
I4
I1
ssg1596
(dp2306
I4
I1
ssg346
(dp2307
I4
I1
ssg1481
(dp2308
I2
I1
ssS'outpatient clinic'
p2309
(dp2310
I3
I1
ssg664
(dp2311
I0
I1
ssg1081
(dp2312
I0
I1
ssg197
(dp2313
I9
I2
ssg1605
(dp2314
I4
I1
ssg674
(dp2315
I0
I1
sI1
I1
sI4
I1
sI7
I1
ssg676
(dp2316
I5
I1
ssg1113
(dp2317
I7
I1
ssg35
(dp2318
I0
I1
ssg37
(dp2319
I9
I1
ssg41
(dp2320
I4
I1
ssg1354
(dp2321
I5
I1
ssg1603
(dp2322
I5
I1
ssg1173
(dp2323
I1
I1
sI5
I1
sI9
I1
ssg131
(dp2324
I1
I1
sI9
I1
ssg51
(dp2325
I9
I1
ssg53
(dp2326
I7
I1
ssg65
(dp2327
I2
I1
ssg695
(dp2328
I6
I1
ssS'methamphetamine'
p2329
(dp2330
I0
I1
ssg67
(dp2331
I1
I1
sI3
I2
sI4
I1
sI5
I1
sI7
I1
sI9
I1
ssg263
(dp2332
I2
I1
ssg69
(dp2333
I4
I1
ssg71
(dp2334
I1
I2
sI3
I2
sI4
I2
sI6
I1
sI7
I1
sI9
I1
ssg1191
(dp2335
I0
I1
ssg701
(dp2336
I1
I1
sI4
I1
sI9
I1
ssg79
(dp2337
I2
I1
sI4
I1
sI6
I1
sI7
I1
ssg81
(dp2338
I4
I1
ssg1652
(dp2339
I0
I2
sI8
I1
sI2
I1
sI6
I1
ssg446
(dp2340
I6
I1
ssS'ribe'
p2341
(dp2342
I3
I1
ssg175
(dp2343
I4
I1
ssS'indigestion'
p2344
(dp2345
I0
I1
ssS'digestion'
p2346
(dp2347
I0
I1
ssg448
(dp2348
I9
I1
ssg141
(dp2349
I0
I1
ssg2116
(dp2350
I6
I1
ssS'mitral valve'
p2351
(dp2352
I7
I1
ssS'amylase'
p2353
(dp2354
I3
I1
ssS'cocaine'
p2355
(dp2356
I0
I1
ssg1784
(dp2357
I0
I2
sI8
I1
sI6
I1
ssg2266
(dp2358
I9
I1
ssg101
(dp2359
I9
I2
ssS'intention'
p2360
(dp2361
I0
I2
sI8
I2
ssS'prost'
p2362
(dp2363
I7
I1
ssS'aves'
p2364
(dp2365
I8
I1
sI1
I3
sI9
I1
ssS'graves ophthalmopathy'
p2366
(dp2367
I1
I1
ssS'outpatient'
p2368
(dp2369
I3
I1
ssS'ophthalmia'
p2370
(dp2371
I2
I1
ssg1804
(dp2372
I4
I1
ssg117
(dp2373
I0
I1
sI2
I1
sI3
I3
sI4
I1
sI5
I1
sI6
I1
sI7
I1
sI8
I1
sI9
I1
ssS'exophthalmos'
p2374
(dp2375
I8
I1
ssS'tham'
p2376
(dp2377
I0
I1
ssg470
(dp2378
I1
I1
sI9
I1
ssS'anxiety'
p2379
(dp2380
I6
I1
ssg1410
(dp2381
I7
I1
ssg313
(dp2382
I3
I1
ssg39
(dp2383
I0
I1
sI3
I1
sI4
I1
sI6
I1
ssg1413
(dp2384
I3
I1
ssg300
(dp2385
I7
I1
ssS'utp'
p2386
(dp2387
I3
I1
ssg133
(dp2388
I0
I2
sI8
I2
sI3
I1
sI4
I2
sI9
I2
ssS'coca'
p2389
(dp2390
I0
I1
ssg135
(dp2391
I4
I1
ssS'groin'
p2392
(dp2393
I6
I1
ssg139
(dp2394
I3
I2
sI4
I1
ssg325
(dp2395
I0
I1
ssS'iodine'
p2396
(dp2397
I9
I1
ssS'caloric intake'
p2398
(dp2399
I5
I1
ssS'endocrinology'
p2400
(dp2401
I5
I1
ssg145
(dp2402
I9
I1
sI2
I1
sI4
I1
ssg147
(dp2403
I0
I1
sI3
I1
sI5
I1
sI6
I1
ssg13
(dp2404
I2
I1
sI4
I1
sI6
I1
sI7
I1
ssg1826
(dp2405
I1
I2
ssS'heart rate'
p2406
(dp2407
I0
I1
ssS'graves disease'
p2408
(dp2409
I8
I1
sI1
I2
sI9
I1
ssg487
(dp2410
I3
I1
ssg153
(dp2411
I0
I1
sI1
I1
sI4
I1
sI5
I1
sI8
I1
sI9
I3
ssS'hypoparathyroidism'
p2412
(dp2413
I5
I1
ssg793
(dp2414
I6
I1
ssg1274
(dp2415
I0
I1
ssS'technology'
p2416
(dp2417
I7
I1
ssS'warfarin'
p2418
(dp2419
I7
I1
ssS'serum'
p2420
(dp2421
I3
I1
ssS'sciences'
p2422
(dp2423
I7
I1
ssS'ige'
p2424
(dp2425
I0
I1
ssg491
(dp2426
I9
I1
ssS'tibia'
p2427
(dp2428
I9
I1
ssg163
(dp2429
I9
I1
sI3
I1
sI4
I1
sI6
I1
sI7
I1
ssg171
(dp2430
I8
I1
sI7
I1
ssg505
(dp2431
I9
I1
sI2
I1
sI4
I1
ssS'persons'
p2432
(dp2433
I1
I1
ssg173
(dp2434
I6
I1
ssg589
(dp2435
I4
I1
sI5
I1
ssg591
(dp2436
I0
I1
ssg994
(dp2437
I2
I1
ssS'dust'
p2438
(dp2439
I7
I1
ssg1297
(dp2440
I6
I1
ssS'amphetamine'
p2441
(dp2442
I0
I1
ssg177
(dp2443
I5
I1
ssS'hyperthyroidism'
p2444
(dp2445
I8
I1
sI9
I2
ssg2285
(dp2446
I9
I1
ssg185
(dp2447
I8
I1
sI1
I2
sI9
I1
ssg822
(dp2448
I0
I1
sI1
I1
ssg537
(dp2449
I0
I2
sI8
I1
sI2
I1
sI6
I2
ssg187
(dp2450
I8
I1
sI9
I1
sI2
I1
sI5
I1
ssg1008
(dp2451
I3
I1
sssS'9'
p2452
(dp2453
g193
(dp2454
I4
I1
ssg195
(dp2455
I0
I1
sI2
I1
sI4
I1
sI5
I1
sI8
I1
sI9
I1
ssg197
(dp2456
I0
I1
sI1
I1
sI2
I1
sI7
I1
ssS'trichinella spiralis'
p2457
(dp2458
I9
I2
ssg51
(dp2459
I8
I1
ssS'human'
p2460
(dp2461
I5
I2
ssS'follicular lymphoma'
p2462
(dp2463
I7
I1
ssg382
(dp2464
I2
I1
ssS'ngf'
p2465
(dp2466
I8
I1
ssS'serology'
p2467
(dp2468
I2
I1
ssg155
(dp2469
I5
I1
ssg208
(dp2470
I1
I1
ssg216
(dp2471
I5
I1
ssg1473
(dp2472
I6
I1
ssg1129
(dp2473
I7
I1
ssg13
(dp2474
I0
I1
sI8
I1
sI4
I1
ssS'larva'
p2475
(dp2476
I9
I1
sI5
I1
ssg19
(dp2477
I1
I1
ssg231
(dp2478
I4
I1
ssg23
(dp2479
I2
I1
ssS'lymphoma'
p2480
(dp2481
I7
I1
ssg597
(dp2482
I7
I1
ssS'eosinophils'
p2483
(dp2484
I6
I1
sI7
I1
ssS'meat'
p2485
(dp2486
I9
I2
sI5
I1
ssg43
(dp2487
I3
I1
ssS'eosinophilia'
p2488
(dp2489
I0
I1
sI8
I1
ssg674
(dp2490
I2
I1
sI4
I1
sI7
I1
ssS'trichinella'
p2491
(dp2492
I9
I2
ssS'encephalitis'
p2493
(dp2494
I6
I2
ssg1113
(dp2495
I3
I1
ssg31
(dp2496
I1
I1
sI2
I1
sI5
I2
sI6
I1
sI9
I1
ssg35
(dp2497
I3
I1
ssg239
(dp2498
I2
I1
ssS'humans'
p2499
(dp2500
I5
I2
ssg39
(dp2501
I4
I1
ssg1500
(dp2502
I6
I1
ssS'leukocyte count'
p2503
(dp2504
I6
I1
ssS'phage'
p2505
(dp2506
I7
I1
ssg41
(dp2507
I4
I1
ssg870
(dp2508
I5
I1
ssg2219
(dp2509
I4
I1
ssS'ump'
p2510
(dp2511
I0
I1
sI8
I1
sI5
I1
sI9
I1
ssg250
(dp2512
I3
I1
sI5
I1
ssg1504
(dp2513
I2
I1
ssg131
(dp2514
I2
I1
ssg378
(dp2515
I2
I1
ssg556
(dp2516
I5
I1
sI7
I2
ssg897
(dp2517
I2
I1
ssg255
(dp2518
I4
I1
ssS'oral medicine'
p2519
(dp2520
I3
I1
ssg57
(dp2521
I3
I1
ssg59
(dp2522
I5
I1
ssS'eosin'
p2523
(dp2524
I0
I1
sI8
I1
sI2
I1
sI6
I4
sI7
I1
ssg65
(dp2525
I0
I1
ssg67
(dp2526
I2
I1
sI3
I2
sI4
I1
sI7
I1
ssS'macrophages'
p2527
(dp2528
I7
I1
ssg69
(dp2529
I4
I1
ssg71
(dp2530
I3
I1
sI5
I1
sI6
I3
ssS'epithelioid cell'
p2531
(dp2532
I7
I1
ssS'epidemiology'
p2533
(dp2534
I5
I1
ssS'eosinophil'
p2535
(dp2536
I0
I1
sI8
I1
sI2
I1
sI6
I4
sI7
I1
ssg73
(dp2537
I9
I1
ssS'neutrophil'
p2538
(dp2539
I7
I1
ssS'neutrophils'
p2540
(dp2541
I7
I1
ssg244
(dp2542
I8
I1
ssg79
(dp2543
I0
I1
sI8
I1
sI4
I1
ssg81
(dp2544
I4
I1
sI6
I1
ssS'plasma cells'
p2545
(dp2546
I7
I1
ssg446
(dp2547
I3
I1
ssg1521
(dp2548
I8
I1
ssg91
(dp2549
I4
I1
ssS'eyelid'
p2550
(dp2551
I9
I1
ssg1215
(dp2552
I9
I1
ssS'larvae'
p2553
(dp2554
I9
I1
sI5
I1
ssg101
(dp2555
I0
I1
sI1
I1
sI2
I1
sI5
I1
sI7
I1
sI8
I2
sI9
I3
ssS'france'
p2556
(dp2557
I8
I1
ssg569
(dp2558
I1
I2
sI3
I1
sI9
I1
ssg571
(dp2559
I1
I2
sI3
I1
sI9
I1
ssS'meningitis'
p2560
(dp2561
I6
I1
ssg2368
(dp2562
I3
I1
ssg462
(dp2563
I9
I1
sI5
I1
sI7
I1
ssg1581
(dp2564
I1
I1
ssg1804
(dp2565
I4
I1
ssg117
(dp2566
I0
I2
sI1
I2
sI2
I1
sI3
I1
sI4
I1
sI5
I3
sI6
I1
sI7
I2
sI8
I2
sI9
I2
ssg123
(dp2567
I2
I1
ssS'meningoencephalitis'
p2568
(dp2569
I6
I2
ssg628
(dp2570
I5
I1
sI7
I2
ssg292
(dp2571
I2
I1
ssg315
(dp2572
I0
I1
sI1
I1
sI2
I1
sI3
I1
sI8
I1
sI9
I1
ssg127
(dp2573
I1
I1
sI9
I1
ssg129
(dp2574
I2
I1
ssg2386
(dp2575
I3
I1
ssg133
(dp2576
I8
I1
sI1
I1
sI4
I1
sI5
I1
sI6
I2
ssg135
(dp2577
I4
I1
ssS'aspirin'
p2578
(dp2579
I7
I1
ssg626
(dp2580
I7
I1
ssg139
(dp2581
I0
I1
sI1
I1
sI2
I1
sI3
I1
sI4
I1
sI7
I1
sI9
I1
ssg325
(dp2582
I9
I1
sI6
I1
sI7
I1
ssg327
(dp2583
I4
I1
ssS'phages'
p2584
(dp2585
I7
I1
ssS'wild animal'
p2586
(dp2587
I9
I1
ssS'archin'
p2588
(dp2589
I8
I1
ssg1019
(dp2590
I1
I1
ssg147
(dp2591
I4
I1
sI5
I1
ssg1110
(dp2592
I8
I2
sI9
I3
sI5
I1
ssg338
(dp2593
I0
I1
sI1
I1
sI2
I1
sI3
I1
sI8
I1
sI9
I1
ssg153
(dp2594
I9
I2
sI4
I1
sI5
I1
sI6
I1
sI7
I1
ssg344
(dp2595
I6
I1
ssS'plasma cell'
p2596
(dp2597
I7
I1
ssg975
(dp2598
I8
I1
sI2
I2
ssS'trichinella spirali'
p2599
(dp2600
I9
I2
ssg115
(dp2601
I4
I1
sI7
I1
ssS'trichinellosis'
p2602
(dp2603
I8
I1
sI9
I1
sI5
I1
ssS'animal'
p2604
(dp2605
I9
I1
ssg163
(dp2606
I8
I1
ssS'wild boar'
p2607
(dp2608
I9
I2
ssg165
(dp2609
I0
I1
sI1
I3
sI2
I1
sI3
I1
sI4
I1
sI5
I1
sI6
I1
sI8
I1
sI9
I1
ssg167
(dp2610
I1
I2
sI2
I1
sI7
I1
ssS'epithelioid cells'
p2611
(dp2612
I7
I1
ssg171
(dp2613
I7
I1
ssg589
(dp2614
I1
I1
ssg175
(dp2615
I4
I1
ssg177
(dp2616
I4
I1
ssS'macrophage'
p2617
(dp2618
I7
I1
ssg664
(dp2619
I9
I1
ssg1066
(dp2620
I1
I1
ssg1000
(dp2621
I9
I1
sI7
I1
ssS'orbit'
p2622
(dp2623
I2
I1
sI5
I1
ssg1447
(dp2624
I8
I1
ssS'face'
p2625
(dp2626
I1
I1
ssg187
(dp2627
I0
I1
sI8
I1
sI3
I1
sI5
I2
sI6
I1
ssg373
(dp2628
I5
I1
ssg1008
(dp2629
I5
I1
ssS'ovis'
p2630
(dp2631
I3
I1
sssS'8'
p2632
(dp2633
g3
(dp2634
I0
I1
sI1
I1
sI4
I1
sI6
I1
ssg637
(dp2635
I0
I3
sI1
I4
sI2
I4
sI3
I4
sI4
I7
sI6
I1
sI7
I3
sI8
I1
ssg2217
(dp2636
I0
I1
ssS'vitamin h'
p2637
(dp2638
I9
I1
ssg382
(dp2639
I8
I1
sI1
I2
sI3
I1
ssg647
(dp2640
I2
I1
ssg720
(dp2641
I1
I1
ssg214
(dp2642
I8
I1
ssg149
(dp2643
I1
I1
sI2
I1
sI4
I1
sI9
I1
ssS'apnea'
p2644
(dp2645
I1
I3
sI2
I3
sI3
I2
sI4
I4
ssg1135
(dp2646
I3
I1
ssg23
(dp2647
I8
I1
ssS'e nose'
p2648
(dp2649
I3
I1
ssS'rectal prolapse'
p2650
(dp2651
I9
I1
ssg674
(dp2652
I3
I1
ssg31
(dp2653
I8
I1
sI9
I1
sI3
I1
ssg35
(dp2654
I4
I1
ssS'sleep apnea obstructive'
p2655
(dp2656
I2
I1
ssS'somnography'
p2657
(dp2658
I2
I1
ssS'snoring'
p2659
(dp2660
I3
I1
sI4
I1
ssS'apnea obstructive sleep'
p2661
(dp2662
I2
I1
ssS'sweats'
p2663
(dp2664
I0
I1
ssg250
(dp2665
I8
I2
ssg1173
(dp2666
I0
I1
ssg1504
(dp2667
I8
I1
ssg1751
(dp2668
I7
I2
ssg51
(dp2669
I8
I1
ssg53
(dp2670
I3
I1
ssg65
(dp2671
I0
I1
ssg695
(dp2672
I2
I1
ssg1096
(dp2673
I1
I1
ssg261
(dp2674
I8
I1
ssg71
(dp2675
I2
I1
ssS'vitamin'
p2676
(dp2677
I9
I1
ssg1191
(dp2678
I9
I1
ssg79
(dp2679
I5
I1
ssg822
(dp2680
I3
I1
ssg1652
(dp2681
I0
I1
sI6
I1
ssg83
(dp2682
I8
I2
ssg1573
(dp2683
I0
I1
sI1
I1
sI2
I1
sI3
I1
ssg446
(dp2684
I8
I1
ssg926
(dp2685
I2
I1
sI3
I1
ssg101
(dp2686
I8
I1
sI1
I4
sI2
I2
sI3
I1
sI5
I1
ssg1789
(dp2687
I7
I2
ssg516
(dp2688
I0
I1
sI1
I1
sI3
I1
sI4
I1
sI6
I1
ssS'prolapse'
p2689
(dp2690
I9
I1
ssg300
(dp2691
I4
I1
ssg571
(dp2692
I1
I1
ssS'neurological disorder'
p2693
(dp2694
I8
I1
ssS'sleep apnea'
p2695
(dp2696
I1
I2
sI2
I3
sI3
I2
sI4
I4
ssS'obstructive sleep apnea'
p2697
(dp2698
I1
I1
sI2
I2
sI3
I1
sI4
I3
ssg197
(dp2699
I8
I1
sI1
I4
sI2
I2
sI3
I1
ssg117
(dp2700
I0
I2
sI2
I1
sI3
I1
sI5
I2
sI6
I1
sI7
I1
sI8
I1
sI9
I1
ssg309
(dp2701
I5
I1
ssg13
(dp2702
I5
I1
ssg949
(dp2703
I8
I1
ssg133
(dp2704
I1
I1
sI3
I1
sI9
I1
ssg139
(dp2705
I1
I1
sI9
I1
ssg325
(dp2706
I1
I1
sI7
I1
ssg777
(dp2707
I5
I1
ssS'tissues'
p2708
(dp2709
I3
I1
ssg147
(dp2710
I0
I2
sI2
I1
sI6
I1
ssg964
(dp2711
I3
I1
ssg2212
(dp2712
I0
I1
ssg1425
(dp2713
I0
I1
ssg1427
(dp2714
I3
I1
ssg153
(dp2715
I9
I1
sI4
I2
ssS'failure to thrive'
p2716
(dp2717
I0
I1
sI9
I1
sI2
I1
ssg971
(dp2718
I1
I1
ssg1274
(dp2719
I9
I1
ssg155
(dp2720
I0
I1
sI2
I1
ssS'polysomnography'
p2721
(dp2722
I2
I1
ssg163
(dp2723
I8
I2
ssg842
(dp2724
I9
I1
ssg171
(dp2725
I2
I1
sI5
I1
ssg589
(dp2726
I0
I1
ssg591
(dp2727
I9
I2
ssg817
(dp2728
I1
I1
ssS'new york'
p2729
(dp2730
I3
I1
ssg177
(dp2731
I5
I1
ssS'mouth breathing'
p2732
(dp2733
I1
I1
ssg980
(dp2734
I1
I1
ssg187
(dp2735
I0
I1
sI6
I1
ssg825
(dp2736
I5
I1
ssg373
(dp2737
I8
I1
ssS'neurological disorders'
p2738
(dp2739
I8
I1
sssS'11'
p2740
(dp2741
g41
(dp2742
I4
I1
ssg835
(dp2743
I9
I1
ssg51
(dp2744
I5
I1
ssg535
(dp2745
I8
I1
sI2
I1
sI4
I1
sI5
I2
ssg1603
(dp2746
I0
I1
sI2
I1
sI5
I1
ssg2298
(dp2747
I2
I1
sI5
I1
ssg384
(dp2748
I0
I1
ssg7
(dp2749
I9
I1
sI4
I1
ssg155
(dp2750
I9
I1
sI5
I1
ssg208
(dp2751
I4
I1
ssg738
(dp2752
I1
I1
ssg1129
(dp2753
I4
I1
ssS'risk factors'
p2754
(dp2755
I6
I1
ssg13
(dp2756
I1
I1
sI4
I1
sI9
I1
sI7
I1
ssg226
(dp2757
I6
I1
ssg346
(dp2758
I4
I1
ssg17
(dp2759
I4
I1
ssS'libido'
p2760
(dp2761
I3
I1
ssg1598
(dp2762
I4
I1
ssS'electrolytes'
p2763
(dp2764
I2
I1
ssg21
(dp2765
I9
I1
ssg664
(dp2766
I7
I1
ssS'outlines'
p2767
(dp2768
I7
I1
ssg597
(dp2769
I1
I1
sI4
I1
ssg2424
(dp2770
I9
I1
ssg27
(dp2771
I8
I2
sI1
I1
sI2
I1
ssg43
(dp2772
I9
I1
ssg2272
(dp2773
I5
I2
ssg676
(dp2774
I5
I1
ssg1158
(dp2775
I2
I1
ssg726
(dp2776
I1
I1
ssg35
(dp2777
I3
I1
sI5
I1
sI7
I1
ssS'constipation'
p2778
(dp2779
I0
I1
sI8
I1
sI5
I1
ssS'antigen'
p2780
(dp2781
I9
I1
ssg1620
(dp2782
I8
I1
ssg414
(dp2783
I5
I1
ssg686
(dp2784
I1
I1
sI4
I1
sI6
I2
ssg127
(dp2785
I6
I1
ssg1322
(dp2786
I0
I1
ssg892
(dp2787
I9
I1
ssg378
(dp2788
I0
I1
ssg556
(dp2789
I1
I1
sI4
I1
ssg1507
(dp2790
I1
I1
ssg429
(dp2791
I1
I1
ssg1907
(dp2792
I0
I1
ssg57
(dp2793
I9
I1
ssg666
(dp2794
I1
I1
ssg65
(dp2795
I0
I1
ssg695
(dp2796
I8
I1
ssg537
(dp2797
I5
I1
ssg69
(dp2798
I4
I1
ssg71
(dp2799
I0
I1
sI3
I1
sI5
I2
sI7
I1
sI8
I1
sI9
I1
ssg585
(dp2800
I1
I1
sI4
I1
ssg268
(dp2801
I5
I1
ssg212
(dp2802
I5
I1
ssS'relaxation'
p2803
(dp2804
I0
I1
sI1
I1
ssg1644
(dp2805
I6
I1
ssg1087
(dp2806
I2
I1
ssg79
(dp2807
I1
I1
sI4
I1
sI9
I1
sI7
I1
ssg81
(dp2808
I4
I1
ssg83
(dp2809
I5
I1
ssg1518
(dp2810
I1
I1
ssg446
(dp2811
I1
I1
ssg175
(dp2812
I4
I1
ssS'owl'
p2813
(dp2814
I0
I1
ssg718
(dp2815
I3
I1
ssg325
(dp2816
I6
I1
ssg2116
(dp2817
I1
I1
ssg33
(dp2818
I7
I1
ssg95
(dp2819
I7
I1
ssg237
(dp2820
I5
I1
ssS'thyroid nodule'
p2821
(dp2822
I2
I1
ssg1215
(dp2823
I0
I1
ssg1217
(dp2824
I9
I1
ssg710
(dp2825
I1
I1
ssg742
(dp2826
I1
I1
ssg2055
(dp2827
I3
I1
ssg294
(dp2828
I0
I1
sI1
I1
sI8
I1
ssg751
(dp2829
I1
I1
sI4
I1
ssg753
(dp2830
I0
I1
sI1
I1
sI8
I2
ssS'glucose'
p2831
(dp2832
I2
I1
ssg1581
(dp2833
I4
I1
ssg115
(dp2834
I4
I1
ssg67
(dp2835
I8
I1
ssg117
(dp2836
I0
I1
sI1
I1
sI2
I1
sI3
I1
sI4
I1
sI5
I1
sI6
I1
sI7
I1
sI9
I2
ssg119
(dp2837
I8
I1
sI9
I1
sI2
I1
sI6
I1
ssg309
(dp2838
I5
I1
ssg39
(dp2839
I0
I1
sI8
I1
sI4
I1
sI5
I1
sI9
I1
ssg422
(dp2840
I5
I2
ssg133
(dp2841
I1
I2
sI4
I2
ssg135
(dp2842
I4
I1
ssg322
(dp2843
I4
I1
ssg773
(dp2844
I1
I1
sI4
I1
ssg139
(dp2845
I9
I1
ssg141
(dp2846
I5
I1
ssS'hot flashes'
p2847
(dp2848
I3
I1
ssg145
(dp2849
I8
I1
sI9
I1
ssg147
(dp2850
I1
I2
sI4
I2
sI6
I2
ssg785
(dp2851
I1
I1
sI4
I1
ssg787
(dp2852
I1
I1
sI2
I1
sI6
I1
ssS'anger'
p2853
(dp2854
I7
I1
ssg153
(dp2855
I0
I1
sI2
I1
sI3
I1
sI4
I1
sI5
I1
sI8
I1
sI9
I2
ssS'axis'
p2856
(dp2857
I4
I1
ssg15
(dp2858
I9
I1
sI7
I1
ssg975
(dp2859
I8
I1
ssS'calciphylaxis'
p2860
(dp2861
I4
I1
ssS'risk factor'
p2862
(dp2863
I6
I1
ssg9
(dp2864
I9
I1
sI4
I1
sI6
I1
ssg1565
(dp2865
I1
I1
ssg1091
(dp2866
I2
I1
ssg163
(dp2867
I5
I1
ssg354
(dp2868
I8
I1
sI1
I1
ssg165
(dp2869
I9
I1
ssg167
(dp2870
I9
I1
sI2
I1
ssg808
(dp2871
I1
I1
sI4
I1
ssg171
(dp2872
I8
I1
sI6
I1
ssg173
(dp2873
I0
I1
sI8
I1
sI2
I1
sI6
I1
sI9
I1
ssg589
(dp2874
I0
I1
sI2
I1
ssg591
(dp2875
I8
I1
sI1
I1
sI2
I1
sI4
I1
ssg363
(dp2876
I0
I1
sI1
I1
sI8
I1
ssg1297
(dp2877
I1
I1
ssg177
(dp2878
I0
I1
sI1
I1
sI2
I1
sI4
I1
sI5
I2
sI6
I1
sI8
I1
sI9
I1
ssS'antigen t'
p2879
(dp2880
I9
I1
ssg509
(dp2881
I2
I1
ssg2622
(dp2882
I2
I1
ssS'owls'
p2883
(dp2884
I0
I1
ssg187
(dp2885
I0
I1
sI6
I1
sssS'10'
p2886
(dp2887
g1317
(dp2888
I4
I1
ssS'dyspareunia'
p2889
(dp2890
I6
I1
ssS'gynecology'
p2891
(dp2892
I2
I1
ssS'ectopic pregnancies'
p2893
(dp2894
I9
I1
ssS'dysmenorrhea'
p2895
(dp2896
I0
I1
sI1
I1
sI2
I1
sI4
I1
sI6
I1
ssg212
(dp2897
I9
I1
sI4
I1
ssg216
(dp2898
I0
I1
sI1
I2
sI3
I1
sI5
I1
sI7
I1
sI8
I1
ssg218
(dp2899
I5
I1
ssg470
(dp2900
I9
I1
sI2
I1
sI5
I1
sI7
I1
ssg2754
(dp2901
I7
I1
ssg13
(dp2902
I0
I1
sI1
I1
sI3
I2
sI4
I1
sI8
I1
ssg226
(dp2903
I3
I1
sI7
I1
ssg346
(dp2904
I8
I1
ssg1135
(dp2905
I7
I1
ssS'gestation'
p2906
(dp2907
I4
I1
ssg231
(dp2908
I3
I1
ssg664
(dp2909
I1
I1
ssg599
(dp2910
I6
I1
ssg27
(dp2911
I1
I1
sI2
I1
ssS'raloxifene'
p2912
(dp2913
I3
I1
ssg674
(dp2914
I7
I1
ssg438
(dp2915
I0
I1
sI1
I1
sI5
I2
sI6
I1
sI7
I1
ssg31
(dp2916
I9
I1
sI7
I1
ssS'ecology'
p2917
(dp2918
I2
I1
ssg1618
(dp2919
I2
I1
sI3
I1
sI6
I1
ssg239
(dp2920
I8
I1
sI3
I1
ssS'pregnancies'
p2921
(dp2922
I9
I1
ssg354
(dp2923
I1
I1
sI4
I1
sI9
I1
ssg244
(dp2924
I8
I1
ssS'metrorrhagia'
p2925
(dp2926
I0
I1
sI1
I1
sI2
I1
ssg418
(dp2927
I0
I1
sI3
I1
sI4
I1
sI5
I1
sI6
I1
sI7
I1
sI9
I2
ssg127
(dp2928
I9
I1
sI2
I1
sI3
I1
sI7
I1
ssS'bleeding uterine'
p2929
(dp2930
I3
I1
ssg368
(dp2931
I6
I1
ssg424
(dp2932
I6
I1
ssg53
(dp2933
I2
I1
ssg61
(dp2934
I3
I1
ssg65
(dp2935
I0
I1
ssg2006
(dp2936
I9
I1
sI5
I1
sI7
I2
ssg67
(dp2937
I1
I1
sI4
I1
ssS'fertilization'
p2938
(dp2939
I8
I1
ssg71
(dp2940
I0
I4
sI1
I5
sI2
I3
sI3
I2
sI4
I2
sI5
I2
sI6
I3
sI7
I3
sI8
I2
sI9
I1
ssg911
(dp2941
I1
I1
ssg187
(dp2942
I0
I1
sI1
I1
sI9
I1
sI5
I1
sI7
I1
ssg79
(dp2943
I0
I1
sI1
I1
sI3
I2
sI4
I1
sI8
I1
ssg81
(dp2944
I6
I1
ssS'drama'
p2945
(dp2946
I9
I1
ssg276
(dp2947
I8
I1
ssg85
(dp2948
I8
I1
ssg33
(dp2949
I8
I1
ssg416
(dp2950
I0
I1
sI3
I1
sI4
I1
sI5
I2
sI6
I1
sI7
I2
sI9
I3
ssg2266
(dp2951
I2
I2
ssg101
(dp2952
I8
I2
ssg2847
(dp2953
I3
I1
ssg2055
(dp2954
I3
I1
ssg681
(dp2955
I9
I1
ssS'in vitro fertilization'
p2956
(dp2957
I8
I1
ssg304
(dp2958
I4
I1
ssg117
(dp2959
I0
I2
sI1
I2
sI2
I1
sI3
I2
sI4
I1
sI5
I3
sI6
I1
sI7
I1
sI8
I2
sI9
I2
ssS'pregnancy complications'
p2960
(dp2961
I5
I1
ssg2862
(dp2962
I7
I1
ssg475
(dp2963
I1
I1
ssg183
(dp2964
I9
I1
sI5
I1
ssg949
(dp2965
I6
I1
ssg131
(dp2966
I1
I1
ssg133
(dp2967
I9
I1
sI6
I2
ssg325
(dp2968
I5
I1
ssS'livers'
p2969
(dp2970
I4
I1
ssS'contraception'
p2971
(dp2972
I3
I1
ssg777
(dp2973
I2
I1
ssS'fibroid'
p2974
(dp2975
I6
I1
ssg145
(dp2976
I8
I2
sI9
I1
sI4
I2
ssg147
(dp2977
I7
I1
ssS'fibroids'
p2978
(dp2979
I6
I1
ssg342
(dp2980
I8
I1
ssg1059
(dp2981
I2
I1
ssg163
(dp2982
I9
I1
ssg153
(dp2983
I9
I2
sI5
I1
sI6
I1
sI7
I3
ssS'iga'
p2984
(dp2985
I8
I1
ssg159
(dp2986
I9
I1
ssS'pregnancy complication'
p2987
(dp2988
I5
I1
ssg1620
(dp2989
I9
I1
sI4
I1
ssg165
(dp2990
I8
I1
ssg167
(dp2991
I8
I2
sI3
I1
sI6
I1
ssS'amenorrhea'
p2992
(dp2993
I3
I1
ssS'menorrhagia'
p2994
(dp2995
I0
I1
sI1
I1
sI4
I1
sI6
I1
ssg171
(dp2996
I9
I1
sI2
I2
sI3
I1
sI5
I1
ssg173
(dp2997
I4
I1
ssS'observation'
p2998
(dp2999
I6
I1
ssg511
(dp3000
I0
I1
sI1
I1
sI5
I2
sI6
I1
ssg292
(dp3001
I8
I1
sI3
I1
sI6
I1
ssS'uteri'
p3002
(dp3003
I3
I1
sI7
I1
ssg825
(dp3004
I2
I1
ssg518
(dp3005
I9
I1
sI3
I1
ssg520
(dp3006
I6
I1
ssg1008
(dp3007
I5
I1
sI7
I1
sssS'13'
p3008
(dp3009
g1317
(dp3010
I8
I1
sI1
I1
sI6
I1
ssg1857
(dp3011
I9
I3
ssS'epiglottitis'
p3012
(dp3013
I1
I2
sI3
I1
sI4
I2
sI6
I2
sI9
I2
ssg1603
(dp3014
I2
I1
ssg382
(dp3015
I8
I3
sI4
I1
sI5
I1
sI6
I1
ssS'swallowing'
p3016
(dp3017
I0
I1
ssg216
(dp3018
I1
I1
ssS'soccer'
p3019
(dp3020
I2
I1
ssg149
(dp3021
I1
I1
sI3
I1
sI6
I1
ssg15
(dp3022
I9
I1
sI7
I1
ssg2014
(dp3023
I9
I2
ssS'bacterial infection'
p3024
(dp3025
I0
I1
ssS'trismus'
p3026
(dp3027
I8
I1
ssg605
(dp3028
I9
I2
ssg43
(dp3029
I7
I1
ssg31
(dp3030
I0
I1
sI8
I1
sI5
I1
sI6
I1
ssg1158
(dp3031
I7
I1
ssg33
(dp3032
I5
I1
ssg35
(dp3033
I9
I1
ssg683
(dp3034
I6
I1
ssg883
(dp3035
I9
I1
ssg686
(dp3036
I8
I1
ssg248
(dp3037
I0
I1
ssg2510
(dp3038
I8
I1
ssg250
(dp3039
I8
I1
ssS'dysphonia'
p3040
(dp3041
I5
I1
ssg51
(dp3042
I8
I1
sI1
I1
sI3
I1
sI4
I1
sI7
I1
ssg53
(dp3043
I9
I1
sI2
I1
ssg57
(dp3044
I7
I1
ssg63
(dp3045
I8
I1
sI1
I1
ssg65
(dp3046
I3
I1
sI5
I1
ssg67
(dp3047
I4
I1
ssg71
(dp3048
I1
I1
sI4
I1
sI6
I1
sI9
I1
ssg266
(dp3049
I2
I1
ssg73
(dp3050
I0
I2
sI2
I1
ssg1196
(dp3051
I0
I2
ssg79
(dp3052
I3
I1
ssS'vulnerable populations'
p3053
(dp3054
I6
I1
ssg85
(dp3055
I8
I1
ssg1521
(dp3056
I1
I1
ssS'dysphagia'
p3057
(dp3058
I0
I1
sI2
I1
sI3
I1
sI4
I1
sI5
I1
sI6
I1
sI7
I1
sI9
I1
ssg718
(dp3059
I2
I1
ssS'trachea'
p3060
(dp3061
I0
I1
ssg1479
(dp3062
I8
I1
sI1
I1
sI6
I1
ssg91
(dp3063
I0
I2
sI1
I1
sI2
I1
sI4
I2
sI5
I2
sI9
I1
ssg95
(dp3064
I9
I1
ssg1217
(dp3065
I7
I1
ssg101
(dp3066
I1
I1
sI4
I1
sI5
I1
sI6
I1
sI7
I1
sI8
I4
ssg103
(dp3067
I1
I1
ssg300
(dp3068
I1
I1
ssg1664
(dp3069
I8
I1
ssg2058
(dp3070
I9
I2
ssS'populations'
p3071
(dp3072
I6
I1
ssg462
(dp3073
I0
I1
sI4
I1
sI5
I3
ssg1534
(dp3074
I6
I1
ssg197
(dp3075
I1
I1
sI4
I1
sI5
I1
sI6
I1
sI7
I1
sI8
I3
ssg117
(dp3076
I0
I1
sI1
I1
sI2
I1
sI3
I2
sI4
I2
sI5
I1
sI6
I2
sI8
I2
sI9
I2
ssS'population'
p3077
(dp3078
I6
I1
ssg121
(dp3079
I0
I2
ssS'vulnerable population'
p3080
(dp3081
I6
I1
ssg39
(dp3082
I9
I1
sI4
I1
sI6
I1
ssg422
(dp3083
I2
I1
ssg131
(dp3084
I4
I1
ssg133
(dp3085
I0
I3
sI1
I1
sI4
I2
sI5
I1
sI9
I1
ssg1552
(dp3086
I8
I1
sI1
I1
sI6
I1
ssg771
(dp3087
I8
I1
sI1
I1
sI3
I1
sI4
I1
sI7
I1
ssg139
(dp3088
I1
I1
sI2
I1
ssg325
(dp3089
I4
I1
sI6
I1
ssg1555
(dp3090
I6
I1
ssg145
(dp3091
I8
I1
sI1
I1
sI6
I1
ssg147
(dp3092
I0
I3
sI1
I1
sI2
I2
sI4
I2
sI5
I2
sI7
I2
sI8
I3
sI9
I1
ssg13
(dp3093
I3
I1
ssg1826
(dp3094
I1
I1
ssg787
(dp3095
I8
I1
ssg1427
(dp3096
I1
I1
sI9
I1
ssS'aged'
p3097
(dp3098
I5
I1
ssg153
(dp3099
I0
I4
sI2
I2
sI3
I1
sI6
I2
sI7
I3
sI8
I3
sI9
I2
ssS'hoarseness'
p3100
(dp3101
I0
I1
ssg155
(dp3102
I8
I1
sI9
I1
sI2
I1
sI7
I1
ssg163
(dp3103
I6
I1
sI7
I1
ssg354
(dp3104
I2
I1
ssg165
(dp3105
I0
I1
sI1
I3
sI2
I1
sI3
I1
sI4
I1
sI5
I1
sI7
I1
sI8
I1
sI9
I1
ssg167
(dp3106
I5
I1
sI7
I1
ssS'respiratory tract infection'
p3107
(dp3108
I5
I2
ssg171
(dp3109
I1
I1
sI5
I1
ssS'cyanosis'
p3110
(dp3111
I0
I1
ssg591
(dp3112
I9
I1
ssg509
(dp3113
I7
I2
ssg1000
(dp3114
I4
I1
ssg1852
(dp3115
I2
I1
ssg187
(dp3116
I3
I1
sI6
I1
ssg1008
(dp3117
I0
I1
sssS'12'
p3118
(dp3119
S'campylobacter fetus'
p3120
(dp3121
I6
I1
ssg191
(dp3122
I0
I1
ssg193
(dp3123
I6
I1
ssg195
(dp3124
I6
I1
ssg201
(dp3125
I6
I1
ssS'papilloma'
p3126
(dp3127
I1
I1
ssg535
(dp3128
I8
I1
ssS'fetus'
p3129
(dp3130
I6
I1
ssg7
(dp3131
I7
I1
ssg208
(dp3132
I4
I1
ssS'neoplasm'
p3133
(dp3134
I1
I1
ssg1129
(dp3135
I2
I1
ssg13
(dp3136
I0
I1
sI1
I1
sI2
I1
sI5
I1
sI7
I1
sI9
I1
ssg346
(dp3137
I9
I1
sI5
I1
ssS'michigan'
p3138
(dp3139
I9
I1
ssg1066
(dp3140
I4
I1
ssg664
(dp3141
I6
I1
ssS'campylobacter'
p3142
(dp3143
I6
I1
ssg27
(dp3144
I8
I1
ssg43
(dp3145
I2
I1
ssg31
(dp3146
I0
I1
sI7
I1
ssg1158
(dp3147
I6
I1
ssg33
(dp3148
I2
I1
sI5
I1
ssg35
(dp3149
I3
I1
sI7
I1
ssS'cd4 count'
p3150
(dp3151
I5
I1
ssg315
(dp3152
I0
I1
sI5
I1
ssg244
(dp3153
I8
I1
sI7
I1
ssg686
(dp3154
I8
I1
sI1
I1
ssg1354
(dp3155
I2
I1
ssg892
(dp3156
I2
I1
ssg894
(dp3157
I9
I1
ssg1507
(dp3158
I8
I1
ssg429
(dp3159
I8
I1
ssg19
(dp3160
I0
I1
ssg61
(dp3161
I1
I1
ssg63
(dp3162
I7
I1
ssg65
(dp3163
I0
I1
sI1
I1
sI2
I1
sI5
I1
ssg905
(dp3164
I9
I1
ssg67
(dp3165
I2
I2
ssg263
(dp3166
I8
I1
ssg71
(dp3167
I6
I1
sI7
I1
ssg266
(dp3168
I5
I2
ssg73
(dp3169
I1
I1
sI9
I1
ssS'loma'
p3170
(dp3171
I1
I1
ssg79
(dp3172
I0
I1
sI1
I1
sI2
I1
sI5
I1
sI7
I1
sI9
I1
ssg83
(dp3173
I7
I1
ssg1518
(dp3174
I8
I1
ssg85
(dp3175
I1
I1
ssS'hiv antibodies'
p3176
(dp3177
I9
I1
ssg95
(dp3178
I7
I1
ssg1529
(dp3179
I0
I1
sI9
I1
ssg101
(dp3180
I1
I1
sI9
I1
ssS'vital sign'
p3181
(dp3182
I9
I1
ssg302
(dp3183
I5
I1
ssg569
(dp3184
I0
I1
sI1
I1
sI2
I1
sI3
I1
sI4
I1
sI5
I1
sI6
I1
sI7
I1
sI9
I1
ssg571
(dp3185
I0
I1
sI1
I1
sI2
I1
sI3
I1
sI4
I1
sI5
I1
sI6
I1
sI7
I1
sI9
I1
ssg2560
(dp3186
I6
I1
ssS'bladder'
p3187
(dp3188
I1
I1
ssg117
(dp3189
I0
I3
sI1
I2
sI2
I2
sI3
I1
sI4
I1
sI5
I2
sI6
I1
sI7
I4
sI8
I1
sI9
I1
ssg119
(dp3190
I2
I1
sI3
I1
sI4
I1
sI5
I1
sI7
I1
ssg39
(dp3191
I0
I1
sI2
I1
sI6
I1
ssg133
(dp3192
I1
I1
sI3
I1
sI4
I2
sI5
I2
sI8
I2
sI9
I1
ssg325
(dp3193
I0
I1
sI2
I1
ssg1019
(dp3194
I4
I1
ssg145
(dp3195
I1
I1
sI5
I1
sI9
I2
ssg147
(dp3196
I8
I2
sI0
I1
sI7
I1
sI9
I1
sI1
I1
ssg336
(dp3197
I0
I1
ssg787
(dp3198
I8
I1
sI7
I1
ssg338
(dp3199
I0
I1
sI5
I1
ssg968
(dp3200
I1
I1
ssg153
(dp3201
I0
I1
sI1
I1
sI2
I2
sI3
I1
sI4
I1
sI5
I1
sI8
I1
sI9
I1
ssg15
(dp3202
I5
I1
sI7
I1
ssg975
(dp3203
I9
I1
sI5
I1
ssg155
(dp3204
I0
I1
sI5
I2
ssg1565
(dp3205
I8
I1
ssg2984
(dp3206
I9
I1
ssg159
(dp3207
I0
I1
ssg354
(dp3208
I0
I1
ssg165
(dp3209
I1
I1
sI2
I2
sI3
I1
sI4
I1
sI5
I1
sI6
I1
sI7
I1
sI8
I1
sI9
I1
ssg167
(dp3210
I0
I1
sI8
I1
sI4
I1
sI6
I1
ssg171
(dp3211
I6
I1
ssg173
(dp3212
I1
I1
sI2
I1
sI3
I1
sI4
I1
sI5
I1
sI7
I1
ssg589
(dp3213
I2
I1
sI4
I1
ssS'vital signs'
p3214
(dp3215
I9
I1
ssg177
(dp3216
I1
I1
sI2
I1
sI3
I1
sI4
I1
sI5
I1
sI6
I1
sI7
I1
sI8
I2
sI9
I2
ssS'antibodies'
p3217
(dp3218
I1
I1
sI9
I1
ssg446
(dp3219
I8
I1
ssg509
(dp3220
I6
I1
ssg181
(dp3221
I0
I1
ssg1008
(dp3222
I3
I1
sssS'15'
p3223
(dp3224
S'hypercholesterolemia'
p3225
(dp3226
I7
I1
ssS'al 1'
p3227
(dp3228
I5
I1
ssg380
(dp3229
I2
I1
ssS'blood volume'
p3230
(dp3231
I1
I1
ssg9
(dp3232
I0
I1
sI5
I1
ssS'adrenal gland'
p3233
(dp3234
I9
I1
ssg212
(dp3235
I8
I1
ssg1129
(dp3236
I1
I1
ssS'neurologic disorder'
p3237
(dp3238
I4
I1
ssg2244
(dp3239
I3
I1
ssg13
(dp3240
I0
I2
sI1
I1
sI4
I1
sI9
I1
sI7
I2
ssg15
(dp3241
I0
I1
sI4
I1
ssg17
(dp3242
I2
I1
sI3
I1
ssS'thea'
p3243
(dp3244
I2
I1
ssg19
(dp3245
I0
I1
sI1
I1
sI4
I1
sI5
I1
sI7
I1
sI9
I1
ssg21
(dp3246
I0
I1
ssg231
(dp3247
I4
I1
ssS'association'
p3248
(dp3249
I9
I1
sI3
I1
ssS'tobacco'
p3250
(dp3251
I4
I1
ssg27
(dp3252
I1
I1
sI6
I1
ssg671
(dp3253
I0
I1
ssg43
(dp3254
I8
I1
sI9
I1
sI2
I1
sI5
I1
ssg674
(dp3255
I5
I1
ssS'cholesterol'
p3256
(dp3257
I7
I1
ssS'eeg'
p3258
(dp3259
I4
I1
ssg31
(dp3260
I5
I1
sI6
I1
ssg35
(dp3261
I0
I1
sI8
I1
sI3
I1
sI7
I1
ssS'neurology'
p3262
(dp3263
I3
I1
ssg686
(dp3264
I2
I1
ssg127
(dp3265
I6
I1
ssg203
(dp3266
I8
I1
ssS'5 fu'
p3267
(dp3268
I4
I1
ssg53
(dp3269
I6
I1
ssg900
(dp3270
I5
I1
ssg57
(dp3271
I2
I1
sI5
I1
ssg65
(dp3272
I0
I1
ssg695
(dp3273
I4
I1
ssg2158
(dp3274
I9
I1
sI3
I1
sI5
I1
ssg67
(dp3275
I8
I1
sI1
I2
sI4
I1
sI9
I1
ssS'cortisol'
p3276
(dp3277
I9
I1
ssg697
(dp3278
I1
I1
ssg71
(dp3279
I0
I2
sI4
I1
ssg1191
(dp3280
I7
I1
ssg268
(dp3281
I2
I1
ssS'body temperature'
p3282
(dp3283
I7
I1
ssg79
(dp3284
I0
I2
sI1
I1
sI4
I1
sI9
I1
sI7
I2
ssg83
(dp3285
I4
I1
ssg446
(dp3286
I2
I1
sI7
I1
ssS'exercise tolerance'
p3287
(dp3288
I8
I1
ssg718
(dp3289
I7
I1
ssg141
(dp3290
I8
I1
sI7
I1
ssg2116
(dp3291
I7
I1
ssS'exercise'
p3292
(dp3293
I8
I1
ssg89
(dp3294
I8
I1
ssg91
(dp3295
I1
I1
ssS'esrd'
p3296
(dp3297
I2
I1
ssg95
(dp3298
I0
I1
ssS'il 6'
p3299
(dp3300
I1
I1
ssg99
(dp3301
I0
I1
sI2
I1
ssg929
(dp3302
I2
I1
ssS'urology'
p3303
(dp3304
I3
I1
ssg1529
(dp3305
I7
I1
ssg101
(dp3306
I3
I1
ssg103
(dp3307
I5
I1
ssS'neurologic disorders'
p3308
(dp3309
I4
I1
ssS'intermittent claudication'
p3310
(dp3311
I9
I1
ssg569
(dp3312
I5
I1
ssS'tertiary care'
p3313
(dp3314
I3
I1
ssg571
(dp3315
I2
I1
sI5
I1
ssg1797
(dp3316
I8
I1
ssg1079
(dp3317
I7
I1
ssg117
(dp3318
I0
I3
sI1
I2
sI2
I1
sI3
I1
sI4
I1
sI5
I3
sI6
I2
sI7
I3
sI8
I2
sI9
I1
ssg309
(dp3319
I3
I1
ssg292
(dp3320
I5
I1
ssg39
(dp3321
I8
I2
sI1
I1
sI3
I2
sI4
I1
sI9
I1
ssS'hypertensive retinopathy'
p3322
(dp3323
I5
I1
ssg131
(dp3324
I8
I1
sI1
I1
sI4
I1
sI9
I1
ssg133
(dp3325
I8
I1
sI1
I1
sI2
I1
ssg139
(dp3326
I0
I1
sI1
I1
sI2
I1
sI3
I1
sI4
I1
sI5
I1
sI7
I1
sI9
I2
ssg325
(dp3327
I8
I1
sI2
I1
sI3
I1
sI5
I1
sI6
I1
ssS'end stage renal disease'
p3328
(dp3329
I2
I1
ssS'plasma volume'
p3330
(dp3331
I1
I1
ssS'adrenal glands'
p3332
(dp3333
I9
I1
ssg147
(dp3334
I1
I1
sI2
I2
sI7
I2
ssg336
(dp3335
I0
I1
sI1
I1
sI4
I1
sI9
I1
sI7
I1
ssg1427
(dp3336
I5
I1
ssg971
(dp3337
I4
I1
ssg1274
(dp3338
I7
I1
ssg155
(dp3339
I9
I1
sI4
I1
sI5
I1
ssg157
(dp3340
I7
I1
ssg2984
(dp3341
I3
I1
ssg803
(dp3342
I0
I1
ssg163
(dp3343
I3
I1
sI4
I1
ssg354
(dp3344
I9
I1
ssg167
(dp3345
I0
I1
sI2
I1
ssg171
(dp3346
I6
I1
ssg173
(dp3347
I5
I1
ssg591
(dp3348
I1
I1
sI2
I1
sI3
I1
sI7
I1
ssg1297
(dp3349
I9
I1
sI7
I1
ssg177
(dp3350
I3
I1
ssg181
(dp3351
I8
I1
sI3
I1
sI5
I1
ssg819
(dp3352
I2
I1
ssg183
(dp3353
I9
I1
ssg185
(dp3354
I2
I1
ssg980
(dp3355
I4
I1
ssg187
(dp3356
I0
I1
sI8
I1
ssg516
(dp3357
I1
I1
sssS'14'
p3358
(dp3359
S'protein c'
p3360
(dp3361
I3
I1
ssS'fibrin'
p3362
(dp3363
I6
I2
ssS'hemosiderin'
p3364
(dp3365
I0
I1
sI1
I1
sI2
I1
ssg543
(dp3366
I7
I1
ssg551
(dp3367
I9
I1
ssg212
(dp3368
I0
I1
sI1
I1
sI2
I1
sI9
I1
ssg1972
(dp3369
I9
I1
ssg3077
(dp3370
I8
I1
ssS'fetal hemoglobin'
p3371
(dp3372
I7
I1
ssS'awareness'
p3373
(dp3374
I6
I1
ssg13
(dp3375
I0
I1
sI1
I1
sI2
I1
ssg853
(dp3376
I8
I1
ssg17
(dp3377
I0
I1
ssg2906
(dp3378
I0
I1
sI1
I1
sI2
I1
ssS'heme'
p3379
(dp3380
I3
I1
ssS'medical laboratory science'
p3381
(dp3382
I5
I2
ssg664
(dp3383
I1
I1
ssg597
(dp3384
I8
I2
sI3
I1
sI7
I1
ssg599
(dp3385
I0
I1
sI1
I1
sI2
I1
sI4
I1
sI5
I1
sI6
I1
sI7
I1
sI9
I2
ssg1605
(dp3386
I3
I1
ssg27
(dp3387
I0
I1
sI1
I2
sI2
I4
ssg43
(dp3388
I5
I2
sI6
I2
ssg1410
(dp3389
I5
I2
ssg1156
(dp3390
I3
I1
ssg241
(dp3391
I7
I1
ssg39
(dp3392
I3
I1
ssg2503
(dp3393
I7
I1
ssg686
(dp3394
I5
I2
ssS'thrombin'
p3395
(dp3396
I3
I1
sI4
I1
ssg892
(dp3397
I5
I2
ssg51
(dp3398
I3
I1
ssg556
(dp3399
I8
I3
sI3
I2
sI7
I1
ssS'leukocyte counts'
p3400
(dp3401
I7
I1
ssg61
(dp3402
I4
I1
ssg65
(dp3403
I0
I1
ssg67
(dp3404
I8
I1
sI9
I1
sI5
I1
ssg579
(dp3405
I8
I1
ssg71
(dp3406
I0
I2
sI1
I2
sI2
I1
sI5
I2
sI6
I1
sI9
I1
ssg585
(dp3407
I8
I1
sI3
I1
sI7
I1
ssg1313
(dp3408
I3
I1
sI4
I1
ssg911
(dp3409
I1
I1
ssg79
(dp3410
I0
I1
sI1
I1
sI2
I1
ssS'coagulation protein disorders'
p3411
(dp3412
I7
I1
ssg1650
(dp3413
I6
I2
sI7
I1
ssg83
(dp3414
I9
I1
sI6
I1
ssg416
(dp3415
I5
I1
sI6
I1
ssS'g6pd deficiency'
p3416
(dp3417
I8
I1
ssg1931
(dp3418
I4
I1
sI7
I1
ssS'altitude'
p3419
(dp3420
I4
I1
ssS'fibrinogen'
p3421
(dp3422
I6
I2
ssg290
(dp3423
I7
I1
ssg563
(dp3424
I8
I1
ssg751
(dp3425
I3
I1
ssg300
(dp3426
I6
I1
ssg755
(dp3427
I8
I1
ssS'fanconi anemia'
p3428
(dp3429
I7
I1
ssS'red blood cell count'
p3430
(dp3431
I3
I1
ssS'curriculum'
p3432
(dp3433
I5
I1
ssg117
(dp3434
I8
I1
ssg470
(dp3435
I6
I1
ssS'homo sapiens'
p3436
(dp3437
I8
I1
ssg1129
(dp3438
I4
I1
ssg628
(dp3439
I8
I2
sI3
I1
ssg313
(dp3440
I4
I1
ssS'a protein'
p3441
(dp3442
I4
I1
ssg949
(dp3443
I7
I1
ssg131
(dp3444
I8
I1
sI9
I1
ssg133
(dp3445
I0
I1
sI1
I2
sI2
I1
sI3
I1
sI4
I2
sI6
I1
sI7
I1
sI9
I2
ssg619
(dp3446
I0
I1
sI1
I1
sI3
I1
sI4
I1
sI5
I1
sI9
I1
ssg626
(dp3447
I8
I1
ssg325
(dp3448
I8
I1
sI1
I1
sI3
I2
sI6
I1
ssg526
(dp3449
I7
I1
ssg787
(dp3450
I9
I1
ssg145
(dp3451
I0
I1
sI1
I1
sI2
I2
ssg147
(dp3452
I8
I1
sI9
I1
sI5
I2
ssg785
(dp3453
I3
I1
ssS'immune system'
p3454
(dp3455
I4
I1
ssg340
(dp3456
I0
I1
sI1
I1
sI2
I1
ssS'coagulation factors'
p3457
(dp3458
I6
I1
ssS'altitudes'
p3459
(dp3460
I4
I1
ssg153
(dp3461
I0
I1
sI1
I2
sI2
I1
sI9
I1
ssg344
(dp3462
I7
I2
ssg587
(dp3463
I8
I1
sI3
I1
ssS'prothrombin'
p3464
(dp3465
I3
I1
ssS'igg'
p3466
(dp3467
I6
I1
ssg155
(dp3468
I0
I2
sI1
I2
sI2
I2
sI3
I1
sI4
I1
sI6
I1
sI9
I1
ssg796
(dp3469
I7
I1
ssg159
(dp3470
I0
I1
sI1
I1
sI2
I1
ssg163
(dp3471
I3
I1
ssS'hematology'
p3472
(dp3473
I5
I1
sI7
I1
ssS'anatomy'
p3474
(dp3475
I4
I1
ssg507
(dp3476
I3
I1
sI7
I1
ssg591
(dp3477
I8
I2
sI3
I2
sI6
I1
sI7
I1
ssS'chemistry'
p3478
(dp3479
I5
I1
ssS'mitochondria'
p3480
(dp3481
I3
I1
ssg185
(dp3482
I8
I1
ssg1447
(dp3483
I9
I1
ssg187
(dp3484
I0
I1
sI8
I3
sI2
I1
sI9
I1
ssS'coagulation protein disorder'
p3485
(dp3486
I7
I1
ssS'coagulation factor'
p3487
(dp3488
I6
I1
ssS'normal range'
p3489
(dp3490
I9
I1
sssS'17'
p3491
(dp3492
g325
(dp3493
I9
I1
ssg2917
(dp3494
I8
I1
ssS'virus dna'
p3495
(dp3496
I5
I1
ssS'cdc'
p3497
(dp3498
I1
I1
ssg2891
(dp3499
I8
I1
ssg199
(dp3500
I5
I2
ssg37
(dp3501
I2
I1
ssS'researcher'
p3502
(dp3503
I9
I1
ssg39
(dp3504
I4
I1
sI5
I1
sI6
I2
sI7
I1
ssg3126
(dp3505
I0
I1
sI8
I1
sI3
I2
sI5
I1
ssg147
(dp3506
I0
I1
sI1
I1
ssg964
(dp3507
I7
I1
ssg51
(dp3508
I6
I1
ssg2460
(dp3509
I0
I1
sI8
I1
sI3
I2
sI5
I1
ssg787
(dp3510
I8
I1
sI1
I1
sI2
I2
sI4
I1
sI9
I1
ssg686
(dp3511
I1
I1
ssg127
(dp3512
I3
I1
ssS'pap test'
p3513
(dp3514
I1
I2
sI2
I3
sI4
I2
sI6
I1
sI7
I1
sI8
I1
ssS'methods'
p3515
(dp3516
I7
I1
ssS'aging'
p3517
(dp3518
I3
I1
sI6
I1
ssg3097
(dp3519
I3
I1
sI7
I1
ssg1931
(dp3520
I3
I2
sI4
I1
sI5
I3
ssS'rains'
p3521
(dp3522
I8
I1
ssg1361
(dp3523
I9
I1
ssg155
(dp3524
I4
I1
sI5
I1
sI6
I2
sI7
I2
ssg171
(dp3525
I9
I2
sI2
I1
sI4
I2
ssg153
(dp3526
I3
I1
sI4
I1
sI5
I1
ssg556
(dp3527
I8
I1
sI1
I2
sI7
I1
ssS'method'
p3528
(dp3529
I7
I1
ssS'patient care'
p3530
(dp3531
I6
I1
ssS'cervix'
p3532
(dp3533
I8
I1
ssg53
(dp3534
I4
I1
ssS'men 3'
p3535
(dp3536
I6
I1
ssS'pap smear'
p3537
(dp3538
I8
I1
sI9
I1
sI3
I3
sI5
I2
sI7
I1
ssg41
(dp3539
I3
I1
ssg1280
(dp3540
I3
I1
sI5
I2
sI7
I1
ssg753
(dp3541
I6
I1
ssg63
(dp3542
I5
I1
ssg163
(dp3543
I6
I1
ssg13
(dp3544
I0
I1
ssg67
(dp3545
I0
I1
sI6
I1
ssg226
(dp3546
I8
I2
sI5
I1
sI6
I1
ssg346
(dp3547
I5
I1
ssg3170
(dp3548
I0
I1
sI8
I1
sI3
I2
sI5
I1
ssS'health profession'
p3549
(dp3550
I4
I1
ssg244
(dp3551
I9
I1
ssg71
(dp3552
I0
I1
sI1
I2
sI2
I2
sI3
I1
sI4
I1
sI5
I4
sI6
I2
sI7
I1
sI8
I1
sI9
I3
ssg991
(dp3553
I1
I1
ssg811
(dp3554
I8
I1
ssg1980
(dp3555
I0
I1
sI3
I2
sI5
I1
ssg183
(dp3556
I3
I1
ssS'hpv dna test'
p3557
(dp3558
I4
I1
ssS'developed countries'
p3559
(dp3560
I3
I1
ssg117
(dp3561
I0
I2
sI1
I2
sI2
I1
sI3
I4
sI4
I1
sI5
I2
sI6
I2
sI7
I2
sI8
I2
sI9
I3
ssg1210
(dp3562
I2
I1
ssg470
(dp3563
I0
I1
sI1
I1
sI2
I2
sI3
I1
sI4
I1
sI5
I2
sI6
I2
sI7
I1
sI8
I1
sI9
I3
ssS'cervical smear'
p3564
(dp3565
I0
I2
ssg1085
(dp3566
I4
I1
sI5
I1
sI7
I1
ssS'programs'
p3567
(dp3568
I3
I1
ssg79
(dp3569
I0
I1
ssg628
(dp3570
I8
I1
sI1
I2
sI7
I1
ssS'rage'
p3571
(dp3572
I8
I1
ssg475
(dp3573
I3
I1
sI5
I2
sI7
I1
ssg81
(dp3574
I3
I1
ssg173
(dp3575
I5
I1
ssg43
(dp3576
I9
I1
sI3
I1
ssg949
(dp3577
I8
I2
sI1
I1
sI2
I1
sI4
I1
ssg822
(dp3578
I6
I1
ssg131
(dp3579
I0
I1
ssg133
(dp3580
I8
I1
sI9
I2
sI2
I1
sI3
I1
ssg1488
(dp3581
I0
I1
ssg135
(dp3582
I3
I1
ssg139
(dp3583
I6
I1
ssS'researchers'
p3584
(dp3585
I9
I1
ssg31
(dp3586
I1
I1
sI3
I1
sI4
I1
sI6
I2
sI7
I1
sI8
I1
sI9
I1
sssS'16'
p3587
(dp3588
g1317
(dp3589
I4
I2
ssS'allergy'
p3590
(dp3591
I3
I1
ssS'luminol'
p3592
(dp3593
I9
I1
ssg5
(dp3594
I3
I1
ssg825
(dp3595
I8
I1
sI1
I1
ssS'swimming pool'
p3596
(dp3597
I2
I1
ssg9
(dp3598
I0
I1
ssS'armin'
p3599
(dp3600
I6
I1
ssS'child care'
p3601
(dp3602
I4
I1
ssg214
(dp3603
I2
I1
ssS'infant formula'
p3604
(dp3605
I4
I1
ssg149
(dp3606
I2
I1
ssg15
(dp3607
I2
I1
sI5
I1
ssS'government'
p3608
(dp3609
I4
I1
ssS'lunch'
p3610
(dp3611
I8
I1
ssg1071
(dp3612
I5
I1
ssg1989
(dp3613
I7
I1
ssg664
(dp3614
I7
I1
ssg1605
(dp3615
I1
I1
ssS'textbooks'
p3616
(dp3617
I3
I1
ssg43
(dp3618
I2
I1
ssg31
(dp3619
I8
I1
sI9
I1
sI3
I1
ssg35
(dp3620
I4
I1
sI5
I1
sI6
I1
ssg37
(dp3621
I0
I1
sI8
I1
sI2
I1
sI4
I1
ssS'books'
p3622
(dp3623
I3
I1
ssg41
(dp3624
I8
I1
ssg1354
(dp3625
I9
I1
sI3
I1
ssg183
(dp3626
I2
I1
sI4
I1
sI7
I2
ssg203
(dp3627
I6
I1
ssg51
(dp3628
I1
I2
sI4
I1
ssg556
(dp3629
I3
I1
ssS'safety'
p3630
(dp3631
I2
I1
ssg61
(dp3632
I4
I1
ssg63
(dp3633
I7
I1
ssg65
(dp3634
I0
I1
ssg67
(dp3635
I3
I1
sI5
I1
ssg261
(dp3636
I2
I1
ssg71
(dp3637
I8
I1
sI9
I1
sI4
I2
sI5
I1
ssg911
(dp3638
I2
I3
ssg81
(dp3639
I8
I1
sI3
I1
ssS'smoke'
p3640
(dp3641
I9
I1
ssg446
(dp3642
I3
I1
ssS'histamine'
p3643
(dp3644
I3
I1
ssS'swimming'
p3645
(dp3646
I2
I1
ssS'bath'
p3647
(dp3648
I2
I1
ssg91
(dp3649
I9
I1
ssg93
(dp3650
I9
I1
sI2
I1
ssg95
(dp3651
I5
I1
ssg97
(dp3652
I2
I1
ssg101
(dp3653
I1
I1
sI2
I1
sI4
I2
sI7
I1
ssg103
(dp3654
I5
I1
ssS'farming'
p3655
(dp3656
I6
I1
ssS'chancroid'
p3657
(dp3658
I5
I1
ssg571
(dp3659
I5
I1
ssS'lungs'
p3660
(dp3661
I2
I1
ssS'head injuries'
p3662
(dp3663
I5
I1
ssg197
(dp3664
I1
I1
sI2
I1
sI4
I2
sI7
I1
ssg117
(dp3665
I0
I2
sI1
I1
sI2
I1
sI3
I1
sI4
I1
sI5
I4
sI6
I1
sI7
I2
sI8
I1
sI9
I1
ssg470
(dp3666
I8
I1
ssg121
(dp3667
I2
I1
ssg39
(dp3668
I9
I1
ssg422
(dp3669
I0
I1
ssg131
(dp3670
I3
I1
ssg133
(dp3671
I8
I2
sI9
I2
sI2
I5
sI4
I1
sI7
I1
ssg135
(dp3672
I8
I1
ssg777
(dp3673
I8
I1
sI1
I1
ssg145
(dp3674
I4
I2
ssg147
(dp3675
I9
I2
sI3
I1
ssg1427
(dp3676
I4
I1
ssg1560
(dp3677
I4
I1
ssS'mouse'
p3678
(dp3679
I7
I1
ssg153
(dp3680
I0
I1
sI1
I1
sI3
I3
sI4
I1
sI5
I1
sI6
I1
sI8
I3
ssg346
(dp3681
I4
I1
sI5
I1
ssg155
(dp3682
I9
I1
sI2
I1
sI3
I1
ssg796
(dp3683
I3
I1
ssg157
(dp3684
I3
I1
ssg159
(dp3685
I3
I1
sI4
I1
ssg163
(dp3686
I1
I1
ssg354
(dp3687
I7
I1
ssS'hives'
p3688
(dp3689
I4
I1
ssg171
(dp3690
I7
I2
ssg505
(dp3691
I3
I1
ssg1573
(dp3692
I4
I1
ssg1297
(dp3693
I6
I1
ssg2625
(dp3694
I4
I1
ssg187
(dp3695
I0
I1
ssg516
(dp3696
I2
I1
ssg1008
(dp3697
I8
I1
sssS'19'
p3698
(dp3699
g195
(dp3700
I7
I1
ssg1804
(dp3701
I0
I1
ssg201
(dp3702
I0
I1
sI1
I1
sI2
I1
sI3
I1
sI5
I1
sI8
I1
ssS'osteoporosis'
p3703
(dp3704
I1
I1
ssg5
(dp3705
I4
I1
ssg7
(dp3706
I7
I1
ssg212
(dp3707
I8
I1
sI9
I1
sI4
I1
ssg216
(dp3708
I8
I1
sI1
I1
ssg11
(dp3709
I9
I1
ssg13
(dp3710
I0
I1
sI2
I2
sI3
I1
sI5
I1
sI7
I1
sI8
I1
ssg853
(dp3711
I7
I1
ssg15
(dp3712
I7
I1
ssg1598
(dp3713
I2
I1
ssg19
(dp3714
I4
I1
ssS'pulmonary edema'
p3715
(dp3716
I7
I1
ssS'critically ill'
p3717
(dp3718
I8
I1
ssg91
(dp3719
I0
I1
sI3
I1
sI4
I1
sI5
I1
sI6
I1
sI7
I2
sI8
I2
sI9
I1
ssg27
(dp3720
I8
I1
ssg29
(dp3721
I3
I1
ssg406
(dp3722
I4
I1
ssg31
(dp3723
I9
I1
sI6
I1
ssg1158
(dp3724
I0
I1
ssg33
(dp3725
I9
I1
sI3
I2
sI7
I1
ssg35
(dp3726
I5
I1
sI7
I1
ssg686
(dp3727
I2
I1
ssg422
(dp3728
I6
I1
ssg368
(dp3729
I0
I1
ssg1749
(dp3730
I5
I1
ssg51
(dp3731
I3
I1
ssg53
(dp3732
I3
I1
ssg57
(dp3733
I8
I1
ssg61
(dp3734
I1
I1
sI2
I1
sI3
I1
sI4
I1
sI5
I1
sI6
I1
sI8
I1
sI9
I1
ssg65
(dp3735
I3
I1
sI5
I1
ssg67
(dp3736
I0
I1
sI3
I1
sI4
I1
sI6
I2
sI7
I1
sI8
I1
sI9
I2
ssg69
(dp3737
I0
I1
ssg71
(dp3738
I8
I1
sI1
I1
sI4
I2
sI7
I1
ssg1313
(dp3739
I7
I1
ssg73
(dp3740
I0
I1
sI1
I1
sI2
I1
sI3
I2
sI4
I1
sI5
I2
sI6
I1
sI8
I1
sI9
I1
ssS'prescription'
p3741
(dp3742
I1
I1
ssg77
(dp3743
I1
I2
ssg79
(dp3744
I0
I1
sI2
I2
sI3
I1
sI5
I1
sI7
I1
sI8
I1
ssg81
(dp3745
I0
I1
ssg3640
(dp3746
I3
I1
sI5
I1
ssg446
(dp3747
I6
I1
ssg87
(dp3748
I4
I1
ssg141
(dp3749
I5
I1
ssS'respiratory system'
p3750
(dp3751
I7
I1
ssg93
(dp3752
I9
I1
ssg95
(dp3753
I7
I1
ssS'cor pulmonale'
p3754
(dp3755
I4
I1
ssg99
(dp3756
I0
I1
sI1
I1
sI2
I1
sI4
I1
sI5
I1
sI7
I1
sI8
I1
ssg2360
(dp3757
I5
I1
ssS'chronic obstructive lung disease'
p3758
(dp3759
I9
I1
ssg569
(dp3760
I0
I1
ssg571
(dp3761
I0
I1
ssg111
(dp3762
I9
I2
sI6
I1
ssS'acute respiratory distress syndrome'
p3763
(dp3764
I7
I1
ssg43
(dp3765
I8
I1
ssg1534
(dp3766
I8
I1
ssg113
(dp3767
I9
I1
ssg115
(dp3768
I0
I1
ssg1079
(dp3769
I1
I1
sI4
I1
sI5
I1
ssg117
(dp3770
I0
I1
sI1
I2
sI2
I2
sI3
I1
sI4
I2
sI5
I3
sI6
I1
sI7
I1
sI8
I1
sI9
I1
ssg470
(dp3771
I4
I1
ssg39
(dp3772
I0
I1
sI3
I2
ssg127
(dp3773
I1
I1
ssg129
(dp3774
I7
I1
ssg131
(dp3775
I9
I2
sI6
I2
ssg133
(dp3776
I0
I1
sI8
I1
sI5
I1
sI9
I1
ssg1249
(dp3777
I9
I1
sI6
I2
ssg135
(dp3778
I0
I1
ssg139
(dp3779
I5
I2
ssg325
(dp3780
I3
I1
ssS'alendronate'
p3781
(dp3782
I1
I1
ssg1258
(dp3783
I9
I1
sI6
I2
ssg145
(dp3784
I8
I1
sI5
I1
ssg147
(dp3785
I0
I1
sI2
I1
sI3
I2
sI4
I1
sI5
I2
sI6
I2
sI7
I2
sI8
I2
sI9
I2
ssg336
(dp3786
I4
I1
ssg1264
(dp3787
I9
I1
sI6
I2
ssg41
(dp3788
I0
I1
ssS'acer'
p3789
(dp3790
I4
I1
ssg340
(dp3791
I8
I1
ssg151
(dp3792
I8
I1
ssg153
(dp3793
I0
I1
ssg971
(dp3794
I8
I1
sI7
I1
ssS'rate respiratory'
p3795
(dp3796
I5
I1
ssg2984
(dp3797
I1
I1
sI4
I1
ssg803
(dp3798
I9
I1
ssg163
(dp3799
I0
I1
sI8
I1
sI3
I1
ssg165
(dp3800
I0
I1
sI8
I1
sI2
I1
ssg167
(dp3801
I0
I1
ssS'pulmonology'
p3802
(dp3803
I3
I1
ssg171
(dp3804
I6
I2
ssg173
(dp3805
I7
I1
ssg175
(dp3806
I0
I1
ssg509
(dp3807
I0
I1
ssg181
(dp3808
I3
I1
ssg185
(dp3809
I0
I1
sI9
I2
sI6
I2
sI7
I1
ssS'adult respiratory distress syndrome'
p3810
(dp3811
I8
I1
ssg980
(dp3812
I8
I1
sI7
I1
ssg187
(dp3813
I5
I1
ssg516
(dp3814
I2
I1
ssg1008
(dp3815
I2
I1
sI3
I1
sssS'18'
p3816
(dp3817
g1707
(dp3818
I6
I1
ssg195
(dp3819
I0
I1
sI1
I5
sI3
I3
sI4
I1
sI6
I1
sI7
I2
sI8
I1
ssS'auscultation'
p3820
(dp3821
I8
I1
sI1
I1
ssg3715
(dp3822
I3
I1
sI6
I1
ssg535
(dp3823
I9
I1
ssg1322
(dp3824
I7
I1
ssg384
(dp3825
I6
I1
ssg1326
(dp3826
I0
I1
sI2
I1
sI4
I1
sI5
I1
sI6
I1
ssg597
(dp3827
I2
I1
ssS'tobacco use'
p3828
(dp3829
I5
I1
ssg13
(dp3830
I9
I1
sI2
I1
sI7
I1
ssg123
(dp3831
I9
I1
ssg17
(dp3832
I7
I1
ssg21
(dp3833
I6
I1
ssg3
(dp3834
I5
I1
ssg3248
(dp3835
I4
I1
ssg3250
(dp3836
I5
I1
ssg27
(dp3837
I9
I1
ssg9
(dp3838
I8
I2
sI1
I1
sI6
I1
sI9
I1
ssg43
(dp3839
I4
I1
sI7
I1
ssg3292
(dp3840
I4
I1
ssS'qi'
p3841
(dp3842
I8
I1
ssg1113
(dp3843
I8
I1
ssg2022
(dp3844
I3
I1
ssg33
(dp3845
I8
I1
sI5
I1
ssg35
(dp3846
I3
I2
sI4
I2
sI6
I1
ssg1015
(dp3847
I3
I1
ssg37
(dp3848
I3
I1
ssg1622
(dp3849
I5
I1
ssg39
(dp3850
I8
I1
sI2
I1
sI3
I1
sI5
I1
ssg244
(dp3851
I9
I1
ssg686
(dp3852
I9
I1
sI2
I1
ssS'lymphedema'
p3853
(dp3854
I3
I1
ssg1749
(dp3855
I3
I2
ssg892
(dp3856
I8
I1
sI5
I1
ssg1751
(dp3857
I6
I1
ssg378
(dp3858
I6
I1
ssg556
(dp3859
I2
I1
ssg57
(dp3860
I7
I1
ssg65
(dp3861
I0
I1
sI8
I1
ssg67
(dp3862
I8
I1
sI7
I1
ssg263
(dp3863
I1
I2
sI3
I1
ssg69
(dp3864
I2
I1
ssg585
(dp3865
I2
I1
ssg1313
(dp3866
I1
I1
ssg1191
(dp3867
I4
I1
sI5
I1
ssg79
(dp3868
I9
I1
sI2
I1
sI7
I1
ssg81
(dp3869
I2
I1
ssg446
(dp3870
I9
I1
sI1
I1
ssg175
(dp3871
I2
I1
ssg325
(dp3872
I2
I1
ssg2116
(dp3873
I0
I1
sI9
I1
sI3
I1
sI4
I1
sI7
I1
ssg1525
(dp3874
I3
I1
ssg91
(dp3875
I2
I1
ssg93
(dp3876
I0
I1
sI3
I1
sI4
I1
sI5
I1
sI6
I1
sI7
I1
sI9
I1
ssS'marfans syndrome'
p3877
(dp3878
I8
I1
ssg99
(dp3879
I0
I1
sI3
I1
sI5
I1
sI6
I1
sI8
I1
sI9
I1
ssg929
(dp3880
I7
I1
ssg2729
(dp3881
I4
I1
ssg294
(dp3882
I3
I1
ssg751
(dp3883
I2
I1
ssg3660
(dp3884
I0
I1
sI3
I1
sI4
I1
sI5
I1
sI6
I1
ssg1797
(dp3885
I8
I2
sI5
I1
ssg1229
(dp3886
I4
I1
ssg109
(dp3887
I1
I1
sI4
I2
sI6
I1
ssg115
(dp3888
I2
I1
sI3
I1
ssg117
(dp3889
I0
I1
sI1
I1
sI2
I1
sI3
I2
sI4
I3
sI5
I2
sI6
I1
sI7
I2
sI8
I2
sI9
I2
ssg119
(dp3890
I6
I1
ssg309
(dp3891
I7
I1
ssg1408
(dp3892
I0
I1
sI2
I1
sI4
I1
sI5
I1
sI6
I1
ssg1789
(dp3893
I6
I1
ssg334
(dp3894
I5
I1
ssg183
(dp3895
I4
I2
ssS'hyperlipidemia'
p3896
(dp3897
I5
I1
ssg133
(dp3898
I0
I1
sI1
I2
sI2
I2
sI3
I2
sI4
I1
sI5
I1
sI6
I1
sI7
I1
sI9
I1
ssg135
(dp3899
I2
I1
ssg1418
(dp3900
I7
I1
ssg322
(dp3901
I2
I1
ssg773
(dp3902
I2
I1
ssg139
(dp3903
I8
I1
sI5
I1
ssg141
(dp3904
I3
I2
sI4
I2
ssg787
(dp3905
I9
I1
ssg147
(dp3906
I9
I3
sI2
I2
sI5
I1
ssg785
(dp3907
I2
I1
ssg41
(dp3908
I2
I1
ssg487
(dp3909
I1
I1
ssg153
(dp3910
I8
I1
sI2
I1
sI3
I1
sI5
I1
ssg495
(dp3911
I2
I1
ssg971
(dp3912
I8
I1
ssg1274
(dp3913
I5
I1
ssg155
(dp3914
I0
I1
sI1
I1
sI4
I1
sI5
I1
sI7
I2
ssg1473
(dp3915
I5
I1
ssg354
(dp3916
I2
I1
ssg165
(dp3917
I9
I1
ssg167
(dp3918
I9
I1
sI4
I1
sI6
I1
ssg3802
(dp3919
I5
I1
ssg808
(dp3920
I2
I1
ssg171
(dp3921
I8
I1
ssg173
(dp3922
I2
I1
sI4
I1
sI6
I1
sI7
I1
ssg589
(dp3923
I3
I1
ssg591
(dp3924
I2
I1
sI3
I1
sI5
I1
sI7
I1
ssg1297
(dp3925
I0
I1
sI9
I1
sI4
I1
sI7
I1
ssg177
(dp3926
I6
I1
sI7
I1
ssg181
(dp3927
I3
I1
ssg185
(dp3928
I1
I1
ssg1447
(dp3929
I1
I1
ssg980
(dp3930
I8
I1
ssg187
(dp3931
I0
I1
sI1
I1
sssS'30'
p3932
(dp3933
g325
(dp3934
I2
I1
sI7
I2
ssg633
(dp3935
I9
I1
ssg33
(dp3936
I9
I1
ssg1821
(dp3937
I7
I1
ssg2075
(dp3938
I2
I1
ssg31
(dp3939
I5
I1
ssS'dislocations'
p3940
(dp3941
I2
I1
sI7
I1
ssg683
(dp3942
I1
I1
ssg279
(dp3943
I9
I1
ssg145
(dp3944
I1
I1
ssg147
(dp3945
I6
I2
ssg165
(dp3946
I9
I1
sI6
I1
ssg93
(dp3947
I6
I1
ssg1354
(dp3948
I1
I1
ssg535
(dp3949
I6
I1
ssg167
(dp3950
I1
I1
sI2
I1
sI3
I1
sI4
I3
sI6
I2
sI7
I1
sI8
I1
sI9
I1
ssS'dislocation'
p3951
(dp3952
I8
I1
sI1
I4
sI2
I1
sI5
I1
sI7
I1
ssg183
(dp3953
I1
I4
sI2
I1
sI5
I1
sI7
I2
sI8
I1
sI9
I1
ssg203
(dp3954
I0
I1
sI1
I1
sI3
I2
sI4
I1
sI6
I1
sI7
I1
sI8
I1
sI9
I1
ssg155
(dp3955
I9
I2
ssg261
(dp3956
I2
I1
ssS'goal'
p3957
(dp3958
I2
I1
ssg250
(dp3959
I8
I1
ssg1217
(dp3960
I8
I1
sI7
I1
ssg101
(dp3961
I7
I1
ssg892
(dp3962
I7
I1
ssS'axilla'
p3963
(dp3964
I8
I1
ssg649
(dp3965
I2
I1
ssS'shoulder dislocation'
p3966
(dp3967
I8
I1
sI1
I2
ssg153
(dp3968
I1
I1
sI2
I1
sI5
I1
sI9
I1
ssg253
(dp3969
I5
I3
ssg212
(dp3970
I8
I1
ssg9
(dp3971
I6
I1
ssg255
(dp3972
I1
I1
ssg455
(dp3973
I4
I1
ssg218
(dp3974
I2
I1
sI7
I2
ssg159
(dp3975
I1
I1
sI2
I1
sI5
I1
sI9
I1
ssg57
(dp3976
I8
I1
sI7
I1
ssg214
(dp3977
I2
I1
ssg294
(dp3978
I4
I1
ssg3019
(dp3979
I2
I1
ssg65
(dp3980
I3
I1
ssg216
(dp3981
I5
I1
ssg1392
(dp3982
I7
I1
ssg571
(dp3983
I0
I1
ssg13
(dp3984
I4
I1
ssg67
(dp3985
I0
I1
sI1
I1
sI4
I1
sI9
I1
sI7
I1
ssS'elbow joint'
p3986
(dp3987
I0
I1
ssg15
(dp3988
I8
I1
sI7
I1
ssg263
(dp3989
I9
I1
sI6
I1
ssg171
(dp3990
I3
I1
sI5
I2
sI6
I1
ssg505
(dp3991
I8
I1
sI1
I1
sI2
I1
sI5
I1
sI7
I2
ssg1066
(dp3992
I0
I1
sI2
I1
ssg173
(dp3993
I8
I1
sI6
I1
ssg268
(dp3994
I8
I1
ssg1581
(dp3995
I8
I1
ssg71
(dp3996
I8
I1
sI5
I1
ssg363
(dp3997
I8
I2
sI4
I1
sI6
I1
ssg117
(dp3998
I2
I1
sI3
I1
sI4
I5
sI5
I2
sI6
I2
sI7
I2
sI8
I1
sI9
I2
ssg398
(dp3999
I8
I1
sI1
I3
sI4
I1
ssg123
(dp4000
I8
I1
sI1
I1
sI3
I1
sI6
I1
sI7
I1
ssg244
(dp4001
I6
I1
ssg79
(dp4002
I4
I1
ssS'xrays'
p4003
(dp4004
I5
I1
ssg43
(dp4005
I8
I1
sI7
I1
ssg131
(dp4006
I7
I1
ssg133
(dp4007
I0
I1
sI2
I1
sI4
I1
sI6
I1
ssg516
(dp4008
I9
I1
ssg187
(dp4009
I3
I1
ssg19
(dp4010
I7
I1
ssS'elbow'
p4011
(dp4012
I0
I2
sI2
I1
sI3
I1
sI4
I1
sI5
I2
sI7
I1
sI9
I1
ssg2092
(dp4013
I7
I1
ssg446
(dp4014
I6
I1
ssg1008
(dp4015
I5
I1
ssg139
(dp4016
I1
I1
sI4
I2
sss.